ARM GAS  /var/folders/kp/233_yh1j2dd9gvn3v4mq48f40000gn/T//ccYYLfmk.s 			page 1


   1              		.cpu cortex-m4
   2              		.eabi_attribute 27, 1
   3              		.eabi_attribute 28, 1
   4              		.eabi_attribute 20, 1
   5              		.eabi_attribute 21, 1
   6              		.eabi_attribute 23, 3
   7              		.eabi_attribute 24, 1
   8              		.eabi_attribute 25, 1
   9              		.eabi_attribute 26, 1
  10              		.eabi_attribute 30, 1
  11              		.eabi_attribute 34, 1
  12              		.eabi_attribute 18, 4
  13              		.file	"algorithm.c"
  14              		.text
  15              	.Ltext0:
  16              		.cfi_sections	.debug_frame
  17              		.section	.text.abs_limit,"ax",%progbits
  18              		.align	1
  19              		.syntax unified
  20              		.thumb
  21              		.thumb_func
  22              		.fpu fpv4-sp-d16
  24              	abs_limit:
  25              	.LFB130:
  26              		.file 1 "Src/User/algorithm.c"
   1:Src/User/algorithm.c **** #include "algorithm.h"
   2:Src/User/algorithm.c **** 
   3:Src/User/algorithm.c **** static void abs_limit(float *a, float ABS_MAX)
   4:Src/User/algorithm.c **** {
  27              		.loc 1 4 0
  28              		.cfi_startproc
  29              		@ args = 0, pretend = 0, frame = 0
  30              		@ frame_needed = 0, uses_anonymous_args = 0
  31              		@ link register save eliminated.
  32              	.LVL0:
   5:Src/User/algorithm.c ****     if (*a > ABS_MAX)
  33              		.loc 1 5 0
  34 0000 D0ED007A 		vldr.32	s15, [r0]
  35 0004 F4EEC07A 		vcmpe.f32	s15, s0
  36 0008 F1EE10FA 		vmrs	APSR_nzcv, FPSCR
  37 000c 01DD     		ble	.L2
   6:Src/User/algorithm.c ****         *a = ABS_MAX;
  38              		.loc 1 6 0
  39 000e 80ED000A 		vstr.32	s0, [r0]
  40              	.L2:
   7:Src/User/algorithm.c ****     if (*a < -ABS_MAX)
  41              		.loc 1 7 0
  42 0012 D0ED007A 		vldr.32	s15, [r0]
  43 0016 B1EE400A 		vneg.f32	s0, s0
  44              	.LVL1:
  45 001a F4EEC07A 		vcmpe.f32	s15, s0
  46 001e F1EE10FA 		vmrs	APSR_nzcv, FPSCR
  47 0022 01D5     		bpl	.L1
   8:Src/User/algorithm.c ****         *a = -ABS_MAX;
  48              		.loc 1 8 0
  49 0024 80ED000A 		vstr.32	s0, [r0]
  50              	.L1:
ARM GAS  /var/folders/kp/233_yh1j2dd9gvn3v4mq48f40000gn/T//ccYYLfmk.s 			page 2


  51 0028 7047     		bx	lr
  52              		.cfi_endproc
  53              	.LFE130:
  55              		.section	.text.pid_init,"ax",%progbits
  56              		.align	1
  57              		.global	pid_init
  58              		.syntax unified
  59              		.thumb
  60              		.thumb_func
  61              		.fpu fpv4-sp-d16
  63              	pid_init:
  64              	.LFB131:
   9:Src/User/algorithm.c **** }
  10:Src/User/algorithm.c **** 
  11:Src/User/algorithm.c **** void pid_init(pid_t *pid, float min_out, float max_out, float intergral_limit,
  12:Src/User/algorithm.c ****               float kp, float ki, float kd)
  13:Src/User/algorithm.c **** {
  65              		.loc 1 13 0
  66              		.cfi_startproc
  67              		@ args = 0, pretend = 0, frame = 0
  68              		@ frame_needed = 0, uses_anonymous_args = 0
  69              		@ link register save eliminated.
  70              	.LVL2:
  14:Src/User/algorithm.c ****     pid->integral_limit = intergral_limit;
  71              		.loc 1 14 0
  72 0000 80ED0D1A 		vstr.32	s2, [r0, #52]
  15:Src/User/algorithm.c ****     pid->min_output = min_out;
  73              		.loc 1 15 0
  74 0004 80ED0B0A 		vstr.32	s0, [r0, #44]
  16:Src/User/algorithm.c ****     pid->max_output = max_out;
  75              		.loc 1 16 0
  76 0008 C0ED0C0A 		vstr.32	s1, [r0, #48]
  17:Src/User/algorithm.c **** 
  18:Src/User/algorithm.c ****     pid->p = kp;
  77              		.loc 1 18 0
  78 000c C0ED001A 		vstr.32	s3, [r0]
  19:Src/User/algorithm.c ****     pid->i = ki;
  79              		.loc 1 19 0
  80 0010 80ED012A 		vstr.32	s4, [r0, #4]
  20:Src/User/algorithm.c ****     pid->d = kd;
  81              		.loc 1 20 0
  82 0014 C0ED022A 		vstr.32	s5, [r0, #8]
  83 0018 7047     		bx	lr
  84              		.cfi_endproc
  85              	.LFE131:
  87              		.section	.text.pid_calculate,"ax",%progbits
  88              		.align	1
  89              		.global	pid_calculate
  90              		.syntax unified
  91              		.thumb
  92              		.thumb_func
  93              		.fpu fpv4-sp-d16
  95              	pid_calculate:
  96              	.LFB132:
  21:Src/User/algorithm.c **** }
  22:Src/User/algorithm.c **** 
  23:Src/User/algorithm.c **** float pid_calculate(pid_t *pid, float get, float set)
ARM GAS  /var/folders/kp/233_yh1j2dd9gvn3v4mq48f40000gn/T//ccYYLfmk.s 			page 3


  24:Src/User/algorithm.c **** {
  97              		.loc 1 24 0
  98              		.cfi_startproc
  99              		@ args = 0, pretend = 0, frame = 0
 100              		@ frame_needed = 0, uses_anonymous_args = 0
 101              	.LVL3:
 102 0000 10B5     		push	{r4, lr}
 103              	.LCFI0:
 104              		.cfi_def_cfa_offset 8
 105              		.cfi_offset 4, -8
 106              		.cfi_offset 14, -4
 107 0002 0446     		mov	r4, r0
  25:Src/User/algorithm.c ****     pid->get = get;
 108              		.loc 1 25 0
 109 0004 80ED040A 		vstr.32	s0, [r0, #16]
  26:Src/User/algorithm.c ****     pid->set = set;
 110              		.loc 1 26 0
 111 0008 C0ED030A 		vstr.32	s1, [r0, #12]
  27:Src/User/algorithm.c ****     pid->err[NOW] = set - get;
 112              		.loc 1 27 0
 113 000c 70EEC00A 		vsub.f32	s1, s1, s0
 114              	.LVL4:
 115 0010 C0ED060A 		vstr.32	s1, [r0, #24]
  28:Src/User/algorithm.c **** 
  29:Src/User/algorithm.c ****     pid->pout = pid->p * pid->err[NOW];
 116              		.loc 1 29 0
 117 0014 D0ED007A 		vldr.32	s15, [r0]
 118 0018 60EEA77A 		vmul.f32	s15, s1, s15
 119 001c C0ED077A 		vstr.32	s15, [r0, #28]
  30:Src/User/algorithm.c ****     pid->iout += pid->i * pid->err[NOW];
 120              		.loc 1 30 0
 121 0020 D0ED017A 		vldr.32	s15, [r0, #4]
 122 0024 20EEA77A 		vmul.f32	s14, s1, s15
 123 0028 D0ED087A 		vldr.32	s15, [r0, #32]
 124 002c 77EE877A 		vadd.f32	s15, s15, s14
 125 0030 C0ED087A 		vstr.32	s15, [r0, #32]
  31:Src/User/algorithm.c ****     pid->dout = pid->d * (pid->err[NOW] - pid->err[LAST]);
 126              		.loc 1 31 0
 127 0034 D0ED027A 		vldr.32	s15, [r0, #8]
 128 0038 90ED050A 		vldr.32	s0, [r0, #20]
 129              	.LVL5:
 130 003c 70EEC00A 		vsub.f32	s1, s1, s0
 131 0040 67EEA00A 		vmul.f32	s1, s15, s1
 132 0044 C0ED090A 		vstr.32	s1, [r0, #36]
  32:Src/User/algorithm.c **** 
  33:Src/User/algorithm.c ****     abs_limit(&(pid->iout), pid->integral_limit);
 133              		.loc 1 33 0
 134 0048 90ED0D0A 		vldr.32	s0, [r0, #52]
 135 004c 2030     		adds	r0, r0, #32
 136              	.LVL6:
 137 004e FFF7FEFF 		bl	abs_limit
 138              	.LVL7:
  34:Src/User/algorithm.c ****     pid->out = pid->pout + pid->iout + pid->dout;
 139              		.loc 1 34 0
 140 0052 D4ED077A 		vldr.32	s15, [r4, #28]
 141 0056 94ED087A 		vldr.32	s14, [r4, #32]
 142 005a 77EE877A 		vadd.f32	s15, s15, s14
ARM GAS  /var/folders/kp/233_yh1j2dd9gvn3v4mq48f40000gn/T//ccYYLfmk.s 			page 4


 143 005e 94ED097A 		vldr.32	s14, [r4, #36]
 144 0062 77EE877A 		vadd.f32	s15, s15, s14
 145 0066 C4ED0A7A 		vstr.32	s15, [r4, #40]
  35:Src/User/algorithm.c **** 
  36:Src/User/algorithm.c ****     if (pid->out > pid->max_output)
 146              		.loc 1 36 0
 147 006a 94ED0C7A 		vldr.32	s14, [r4, #48]
 148 006e F4EEC77A 		vcmpe.f32	s15, s14
 149 0072 F1EE10FA 		vmrs	APSR_nzcv, FPSCR
 150 0076 09DC     		bgt	.L18
  37:Src/User/algorithm.c ****         pid->out = pid->max_output;
  38:Src/User/algorithm.c ****     else if (pid->out < pid->min_output)
 151              		.loc 1 38 0
 152 0078 94ED0B7A 		vldr.32	s14, [r4, #44]
 153 007c F4EEC77A 		vcmpe.f32	s15, s14
 154 0080 F1EE10FA 		vmrs	APSR_nzcv, FPSCR
 155 0084 04D5     		bpl	.L12
  39:Src/User/algorithm.c ****         pid->out = pid->min_output;
 156              		.loc 1 39 0
 157 0086 84ED0A7A 		vstr.32	s14, [r4, #40]
 158 008a 01E0     		b	.L12
 159              	.L18:
  37:Src/User/algorithm.c ****         pid->out = pid->max_output;
 160              		.loc 1 37 0
 161 008c 84ED0A7A 		vstr.32	s14, [r4, #40]
 162              	.L12:
  40:Src/User/algorithm.c **** 
  41:Src/User/algorithm.c ****     pid->err[LAST] = pid->err[NOW];
 163              		.loc 1 41 0
 164 0090 A369     		ldr	r3, [r4, #24]	@ float
 165 0092 6361     		str	r3, [r4, #20]	@ float
  42:Src/User/algorithm.c **** 
  43:Src/User/algorithm.c ****     return pid->out;
  44:Src/User/algorithm.c **** }
 166              		.loc 1 44 0
 167 0094 94ED0A0A 		vldr.32	s0, [r4, #40]
 168 0098 10BD     		pop	{r4, pc}
 169              		.cfi_endproc
 170              	.LFE132:
 172              		.section	.text.pid_reset,"ax",%progbits
 173              		.align	1
 174              		.global	pid_reset
 175              		.syntax unified
 176              		.thumb
 177              		.thumb_func
 178              		.fpu fpv4-sp-d16
 180              	pid_reset:
 181              	.LFB133:
  45:Src/User/algorithm.c **** 
  46:Src/User/algorithm.c **** void pid_reset(pid_t *pid, float kp, float ki, float kd)
  47:Src/User/algorithm.c **** {
 182              		.loc 1 47 0
 183              		.cfi_startproc
 184              		@ args = 0, pretend = 0, frame = 0
 185              		@ frame_needed = 0, uses_anonymous_args = 0
 186              		@ link register save eliminated.
 187              	.LVL8:
ARM GAS  /var/folders/kp/233_yh1j2dd9gvn3v4mq48f40000gn/T//ccYYLfmk.s 			page 5


  48:Src/User/algorithm.c ****     pid->p = kp;
 188              		.loc 1 48 0
 189 0000 80ED000A 		vstr.32	s0, [r0]
  49:Src/User/algorithm.c ****     pid->i = ki;
 190              		.loc 1 49 0
 191 0004 C0ED010A 		vstr.32	s1, [r0, #4]
  50:Src/User/algorithm.c ****     pid->d = kd;
 192              		.loc 1 50 0
 193 0008 80ED021A 		vstr.32	s2, [r0, #8]
  51:Src/User/algorithm.c **** 
  52:Src/User/algorithm.c ****     pid->pout = 0;
 194              		.loc 1 52 0
 195 000c 0023     		movs	r3, #0
 196 000e C361     		str	r3, [r0, #28]	@ float
  53:Src/User/algorithm.c ****     pid->iout = 0;
 197              		.loc 1 53 0
 198 0010 0362     		str	r3, [r0, #32]	@ float
  54:Src/User/algorithm.c ****     pid->dout = 0;
 199              		.loc 1 54 0
 200 0012 4362     		str	r3, [r0, #36]	@ float
  55:Src/User/algorithm.c ****     pid->out = 0;
 201              		.loc 1 55 0
 202 0014 8362     		str	r3, [r0, #40]	@ float
 203 0016 7047     		bx	lr
 204              		.cfi_endproc
 205              	.LFE133:
 207              		.text
 208              	.Letext0:
 209              		.file 2 "/Users/geekzjk/opt/gcc-arm-none-eabi-6-2017-q2-update/arm-none-eabi/include/machine/_defa
 210              		.file 3 "/Users/geekzjk/opt/gcc-arm-none-eabi-6-2017-q2-update/arm-none-eabi/include/sys/_stdint.h
 211              		.file 4 "Drivers/CMSIS/Include/core_cm4.h"
 212              		.file 5 "Drivers/CMSIS/Device/ST/STM32F4xx/Include/system_stm32f4xx.h"
 213              		.file 6 "Drivers/STM32F4xx_HAL_Driver/Inc/stm32f4xx_hal.h"
 214              		.file 7 "Inc/User/algorithm.h"
ARM GAS  /var/folders/kp/233_yh1j2dd9gvn3v4mq48f40000gn/T//ccYYLfmk.s 			page 6


DEFINED SYMBOLS
                            *ABS*:0000000000000000 algorithm.c
/var/folders/kp/233_yh1j2dd9gvn3v4mq48f40000gn/T//ccYYLfmk.s:18     .text.abs_limit:0000000000000000 $t
/var/folders/kp/233_yh1j2dd9gvn3v4mq48f40000gn/T//ccYYLfmk.s:24     .text.abs_limit:0000000000000000 abs_limit
/var/folders/kp/233_yh1j2dd9gvn3v4mq48f40000gn/T//ccYYLfmk.s:56     .text.pid_init:0000000000000000 $t
/var/folders/kp/233_yh1j2dd9gvn3v4mq48f40000gn/T//ccYYLfmk.s:63     .text.pid_init:0000000000000000 pid_init
/var/folders/kp/233_yh1j2dd9gvn3v4mq48f40000gn/T//ccYYLfmk.s:88     .text.pid_calculate:0000000000000000 $t
/var/folders/kp/233_yh1j2dd9gvn3v4mq48f40000gn/T//ccYYLfmk.s:95     .text.pid_calculate:0000000000000000 pid_calculate
/var/folders/kp/233_yh1j2dd9gvn3v4mq48f40000gn/T//ccYYLfmk.s:173    .text.pid_reset:0000000000000000 $t
/var/folders/kp/233_yh1j2dd9gvn3v4mq48f40000gn/T//ccYYLfmk.s:180    .text.pid_reset:0000000000000000 pid_reset
                     .debug_frame:0000000000000010 $d

NO UNDEFINED SYMBOLS
