ARM GAS  /var/folders/kp/233_yh1j2dd9gvn3v4mq48f40000gn/T//cc6c02qJ.s 			page 1


   1              		.cpu cortex-m4
   2              		.eabi_attribute 27, 1
   3              		.eabi_attribute 28, 1
   4              		.eabi_attribute 20, 1
   5              		.eabi_attribute 21, 1
   6              		.eabi_attribute 23, 3
   7              		.eabi_attribute 24, 1
   8              		.eabi_attribute 25, 1
   9              		.eabi_attribute 26, 1
  10              		.eabi_attribute 30, 1
  11              		.eabi_attribute 34, 1
  12              		.eabi_attribute 18, 4
  13              		.file	"can.c"
  14              		.text
  15              	.Ltext0:
  16              		.cfi_sections	.debug_frame
  17              		.section	.text.MX_CAN1_Init,"ax",%progbits
  18              		.align	1
  19              		.global	MX_CAN1_Init
  20              		.syntax unified
  21              		.thumb
  22              		.thumb_func
  23              		.fpu fpv4-sp-d16
  25              	MX_CAN1_Init:
  26              	.LFB130:
  27              		.file 1 "Src/can.c"
   1:Src/can.c     **** /**
   2:Src/can.c     ****   ******************************************************************************
   3:Src/can.c     ****   * File Name          : CAN.c
   4:Src/can.c     ****   * Description        : This file provides code for the configuration
   5:Src/can.c     ****   *                      of the CAN instances.
   6:Src/can.c     ****   ******************************************************************************
   7:Src/can.c     ****   * @attention
   8:Src/can.c     ****   *
   9:Src/can.c     ****   * <h2><center>&copy; Copyright (c) 2021 STMicroelectronics.
  10:Src/can.c     ****   * All rights reserved.</center></h2>
  11:Src/can.c     ****   *
  12:Src/can.c     ****   * This software component is licensed by ST under BSD 3-Clause license,
  13:Src/can.c     ****   * the "License"; You may not use this file except in compliance with the
  14:Src/can.c     ****   * License. You may obtain a copy of the License at:
  15:Src/can.c     ****   *                        opensource.org/licenses/BSD-3-Clause
  16:Src/can.c     ****   *
  17:Src/can.c     ****   ******************************************************************************
  18:Src/can.c     ****   */
  19:Src/can.c     **** 
  20:Src/can.c     **** /* Includes ------------------------------------------------------------------*/
  21:Src/can.c     **** #include "can.h"
  22:Src/can.c     **** 
  23:Src/can.c     **** /* USER CODE BEGIN 0 */
  24:Src/can.c     **** 
  25:Src/can.c     **** /* USER CODE END 0 */
  26:Src/can.c     **** 
  27:Src/can.c     **** CAN_HandleTypeDef hcan1;
  28:Src/can.c     **** 
  29:Src/can.c     **** /* CAN1 init function */
  30:Src/can.c     **** void MX_CAN1_Init(void)
  31:Src/can.c     **** {
ARM GAS  /var/folders/kp/233_yh1j2dd9gvn3v4mq48f40000gn/T//cc6c02qJ.s 			page 2


  28              		.loc 1 31 0
  29              		.cfi_startproc
  30              		@ args = 0, pretend = 0, frame = 0
  31              		@ frame_needed = 0, uses_anonymous_args = 0
  32 0000 08B5     		push	{r3, lr}
  33              	.LCFI0:
  34              		.cfi_def_cfa_offset 8
  35              		.cfi_offset 3, -8
  36              		.cfi_offset 14, -4
  32:Src/can.c     **** 
  33:Src/can.c     ****   hcan1.Instance = CAN1;
  37              		.loc 1 33 0
  38 0002 0D48     		ldr	r0, .L5
  39 0004 0D4B     		ldr	r3, .L5+4
  40 0006 0360     		str	r3, [r0]
  34:Src/can.c     ****   hcan1.Init.Prescaler = 3;
  41              		.loc 1 34 0
  42 0008 0323     		movs	r3, #3
  43 000a 4360     		str	r3, [r0, #4]
  35:Src/can.c     ****   hcan1.Init.Mode = CAN_MODE_NORMAL;
  44              		.loc 1 35 0
  45 000c 0023     		movs	r3, #0
  46 000e 8360     		str	r3, [r0, #8]
  36:Src/can.c     ****   hcan1.Init.SyncJumpWidth = CAN_SJW_1TQ;
  47              		.loc 1 36 0
  48 0010 C360     		str	r3, [r0, #12]
  37:Src/can.c     ****   hcan1.Init.TimeSeg1 = CAN_BS1_5TQ;
  49              		.loc 1 37 0
  50 0012 4FF48022 		mov	r2, #262144
  51 0016 0261     		str	r2, [r0, #16]
  38:Src/can.c     ****   hcan1.Init.TimeSeg2 = CAN_BS2_6TQ;
  52              		.loc 1 38 0
  53 0018 4FF4A002 		mov	r2, #5242880
  54 001c 4261     		str	r2, [r0, #20]
  39:Src/can.c     ****   hcan1.Init.TimeTriggeredMode = DISABLE;
  55              		.loc 1 39 0
  56 001e 0376     		strb	r3, [r0, #24]
  40:Src/can.c     ****   hcan1.Init.AutoBusOff = DISABLE;
  57              		.loc 1 40 0
  58 0020 4376     		strb	r3, [r0, #25]
  41:Src/can.c     ****   hcan1.Init.AutoWakeUp = DISABLE;
  59              		.loc 1 41 0
  60 0022 8376     		strb	r3, [r0, #26]
  42:Src/can.c     ****   hcan1.Init.AutoRetransmission = DISABLE;
  61              		.loc 1 42 0
  62 0024 C376     		strb	r3, [r0, #27]
  43:Src/can.c     ****   hcan1.Init.ReceiveFifoLocked = DISABLE;
  63              		.loc 1 43 0
  64 0026 0377     		strb	r3, [r0, #28]
  44:Src/can.c     ****   hcan1.Init.TransmitFifoPriority = DISABLE;
  65              		.loc 1 44 0
  66 0028 4377     		strb	r3, [r0, #29]
  45:Src/can.c     ****   if (HAL_CAN_Init(&hcan1) != HAL_OK)
  67              		.loc 1 45 0
  68 002a FFF7FEFF 		bl	HAL_CAN_Init
  69              	.LVL0:
  70 002e 00B9     		cbnz	r0, .L4
ARM GAS  /var/folders/kp/233_yh1j2dd9gvn3v4mq48f40000gn/T//cc6c02qJ.s 			page 3


  71              	.L1:
  72 0030 08BD     		pop	{r3, pc}
  73              	.L4:
  46:Src/can.c     ****   {
  47:Src/can.c     ****     Error_Handler();
  74              		.loc 1 47 0
  75 0032 FFF7FEFF 		bl	Error_Handler
  76              	.LVL1:
  48:Src/can.c     ****   }
  49:Src/can.c     **** 
  50:Src/can.c     **** }
  77              		.loc 1 50 0
  78 0036 FBE7     		b	.L1
  79              	.L6:
  80              		.align	2
  81              	.L5:
  82 0038 00000000 		.word	hcan1
  83 003c 00640040 		.word	1073767424
  84              		.cfi_endproc
  85              	.LFE130:
  87              		.section	.text.HAL_CAN_MspInit,"ax",%progbits
  88              		.align	1
  89              		.global	HAL_CAN_MspInit
  90              		.syntax unified
  91              		.thumb
  92              		.thumb_func
  93              		.fpu fpv4-sp-d16
  95              	HAL_CAN_MspInit:
  96              	.LFB131:
  51:Src/can.c     **** 
  52:Src/can.c     **** void HAL_CAN_MspInit(CAN_HandleTypeDef* canHandle)
  53:Src/can.c     **** {
  97              		.loc 1 53 0
  98              		.cfi_startproc
  99              		@ args = 0, pretend = 0, frame = 32
 100              		@ frame_needed = 0, uses_anonymous_args = 0
 101              	.LVL2:
 102 0000 10B5     		push	{r4, lr}
 103              	.LCFI1:
 104              		.cfi_def_cfa_offset 8
 105              		.cfi_offset 4, -8
 106              		.cfi_offset 14, -4
 107 0002 88B0     		sub	sp, sp, #32
 108              	.LCFI2:
 109              		.cfi_def_cfa_offset 40
  54:Src/can.c     **** 
  55:Src/can.c     ****   GPIO_InitTypeDef GPIO_InitStruct = {0};
 110              		.loc 1 55 0
 111 0004 0023     		movs	r3, #0
 112 0006 0393     		str	r3, [sp, #12]
 113 0008 0493     		str	r3, [sp, #16]
 114 000a 0593     		str	r3, [sp, #20]
 115 000c 0693     		str	r3, [sp, #24]
 116 000e 0793     		str	r3, [sp, #28]
  56:Src/can.c     ****   if(canHandle->Instance==CAN1)
 117              		.loc 1 56 0
 118 0010 0268     		ldr	r2, [r0]
ARM GAS  /var/folders/kp/233_yh1j2dd9gvn3v4mq48f40000gn/T//cc6c02qJ.s 			page 4


 119 0012 194B     		ldr	r3, .L11
 120 0014 9A42     		cmp	r2, r3
 121 0016 01D0     		beq	.L10
 122              	.LVL3:
 123              	.L7:
  57:Src/can.c     ****   {
  58:Src/can.c     ****   /* USER CODE BEGIN CAN1_MspInit 0 */
  59:Src/can.c     **** 
  60:Src/can.c     ****   /* USER CODE END CAN1_MspInit 0 */
  61:Src/can.c     ****     /* CAN1 clock enable */
  62:Src/can.c     ****     __HAL_RCC_CAN1_CLK_ENABLE();
  63:Src/can.c     **** 
  64:Src/can.c     ****     __HAL_RCC_GPIOB_CLK_ENABLE();
  65:Src/can.c     ****     /**CAN1 GPIO Configuration
  66:Src/can.c     ****     PB8     ------> CAN1_RX
  67:Src/can.c     ****     PB9     ------> CAN1_TX
  68:Src/can.c     ****     */
  69:Src/can.c     ****     GPIO_InitStruct.Pin = GPIO_PIN_8|GPIO_PIN_9;
  70:Src/can.c     ****     GPIO_InitStruct.Mode = GPIO_MODE_AF_PP;
  71:Src/can.c     ****     GPIO_InitStruct.Pull = GPIO_NOPULL;
  72:Src/can.c     ****     GPIO_InitStruct.Speed = GPIO_SPEED_FREQ_VERY_HIGH;
  73:Src/can.c     ****     GPIO_InitStruct.Alternate = GPIO_AF9_CAN1;
  74:Src/can.c     ****     HAL_GPIO_Init(GPIOB, &GPIO_InitStruct);
  75:Src/can.c     **** 
  76:Src/can.c     ****     /* CAN1 interrupt Init */
  77:Src/can.c     ****     HAL_NVIC_SetPriority(CAN1_RX0_IRQn, 1, 0);
  78:Src/can.c     ****     HAL_NVIC_EnableIRQ(CAN1_RX0_IRQn);
  79:Src/can.c     ****   /* USER CODE BEGIN CAN1_MspInit 1 */
  80:Src/can.c     **** 
  81:Src/can.c     ****   /* USER CODE END CAN1_MspInit 1 */
  82:Src/can.c     ****   }
  83:Src/can.c     **** }
 124              		.loc 1 83 0
 125 0018 08B0     		add	sp, sp, #32
 126              	.LCFI3:
 127              		.cfi_remember_state
 128              		.cfi_def_cfa_offset 8
 129              		@ sp needed
 130 001a 10BD     		pop	{r4, pc}
 131              	.LVL4:
 132              	.L10:
 133              	.LCFI4:
 134              		.cfi_restore_state
 135              	.LBB2:
  62:Src/can.c     **** 
 136              		.loc 1 62 0
 137 001c 0024     		movs	r4, #0
 138 001e 0194     		str	r4, [sp, #4]
 139 0020 03F5EA33 		add	r3, r3, #119808
 140 0024 1A6C     		ldr	r2, [r3, #64]
 141 0026 42F00072 		orr	r2, r2, #33554432
 142 002a 1A64     		str	r2, [r3, #64]
 143 002c 1A6C     		ldr	r2, [r3, #64]
 144 002e 02F00072 		and	r2, r2, #33554432
 145 0032 0192     		str	r2, [sp, #4]
 146 0034 019A     		ldr	r2, [sp, #4]
 147              	.LBE2:
ARM GAS  /var/folders/kp/233_yh1j2dd9gvn3v4mq48f40000gn/T//cc6c02qJ.s 			page 5


 148              	.LBB3:
  64:Src/can.c     ****     /**CAN1 GPIO Configuration
 149              		.loc 1 64 0
 150 0036 0294     		str	r4, [sp, #8]
 151 0038 1A6B     		ldr	r2, [r3, #48]
 152 003a 42F00202 		orr	r2, r2, #2
 153 003e 1A63     		str	r2, [r3, #48]
 154 0040 1B6B     		ldr	r3, [r3, #48]
 155 0042 03F00203 		and	r3, r3, #2
 156 0046 0293     		str	r3, [sp, #8]
 157 0048 029B     		ldr	r3, [sp, #8]
 158              	.LBE3:
  69:Src/can.c     ****     GPIO_InitStruct.Mode = GPIO_MODE_AF_PP;
 159              		.loc 1 69 0
 160 004a 4FF44073 		mov	r3, #768
 161 004e 0393     		str	r3, [sp, #12]
  70:Src/can.c     ****     GPIO_InitStruct.Pull = GPIO_NOPULL;
 162              		.loc 1 70 0
 163 0050 0223     		movs	r3, #2
 164 0052 0493     		str	r3, [sp, #16]
  72:Src/can.c     ****     GPIO_InitStruct.Alternate = GPIO_AF9_CAN1;
 165              		.loc 1 72 0
 166 0054 0323     		movs	r3, #3
 167 0056 0693     		str	r3, [sp, #24]
  73:Src/can.c     ****     HAL_GPIO_Init(GPIOB, &GPIO_InitStruct);
 168              		.loc 1 73 0
 169 0058 0923     		movs	r3, #9
 170 005a 0793     		str	r3, [sp, #28]
  74:Src/can.c     **** 
 171              		.loc 1 74 0
 172 005c 03A9     		add	r1, sp, #12
 173 005e 0748     		ldr	r0, .L11+4
 174              	.LVL5:
 175 0060 FFF7FEFF 		bl	HAL_GPIO_Init
 176              	.LVL6:
  77:Src/can.c     ****     HAL_NVIC_EnableIRQ(CAN1_RX0_IRQn);
 177              		.loc 1 77 0
 178 0064 2246     		mov	r2, r4
 179 0066 0121     		movs	r1, #1
 180 0068 1420     		movs	r0, #20
 181 006a FFF7FEFF 		bl	HAL_NVIC_SetPriority
 182              	.LVL7:
  78:Src/can.c     ****   /* USER CODE BEGIN CAN1_MspInit 1 */
 183              		.loc 1 78 0
 184 006e 1420     		movs	r0, #20
 185 0070 FFF7FEFF 		bl	HAL_NVIC_EnableIRQ
 186              	.LVL8:
 187              		.loc 1 83 0
 188 0074 D0E7     		b	.L7
 189              	.L12:
 190 0076 00BF     		.align	2
 191              	.L11:
 192 0078 00640040 		.word	1073767424
 193 007c 00040240 		.word	1073873920
 194              		.cfi_endproc
 195              	.LFE131:
 197              		.section	.text.HAL_CAN_MspDeInit,"ax",%progbits
ARM GAS  /var/folders/kp/233_yh1j2dd9gvn3v4mq48f40000gn/T//cc6c02qJ.s 			page 6


 198              		.align	1
 199              		.global	HAL_CAN_MspDeInit
 200              		.syntax unified
 201              		.thumb
 202              		.thumb_func
 203              		.fpu fpv4-sp-d16
 205              	HAL_CAN_MspDeInit:
 206              	.LFB132:
  84:Src/can.c     **** 
  85:Src/can.c     **** void HAL_CAN_MspDeInit(CAN_HandleTypeDef* canHandle)
  86:Src/can.c     **** {
 207              		.loc 1 86 0
 208              		.cfi_startproc
 209              		@ args = 0, pretend = 0, frame = 0
 210              		@ frame_needed = 0, uses_anonymous_args = 0
 211              	.LVL9:
 212 0000 08B5     		push	{r3, lr}
 213              	.LCFI5:
 214              		.cfi_def_cfa_offset 8
 215              		.cfi_offset 3, -8
 216              		.cfi_offset 14, -4
  87:Src/can.c     **** 
  88:Src/can.c     ****   if(canHandle->Instance==CAN1)
 217              		.loc 1 88 0
 218 0002 0268     		ldr	r2, [r0]
 219 0004 084B     		ldr	r3, .L17
 220 0006 9A42     		cmp	r2, r3
 221 0008 00D0     		beq	.L16
 222              	.LVL10:
 223              	.L13:
 224 000a 08BD     		pop	{r3, pc}
 225              	.LVL11:
 226              	.L16:
  89:Src/can.c     ****   {
  90:Src/can.c     ****   /* USER CODE BEGIN CAN1_MspDeInit 0 */
  91:Src/can.c     **** 
  92:Src/can.c     ****   /* USER CODE END CAN1_MspDeInit 0 */
  93:Src/can.c     ****     /* Peripheral clock disable */
  94:Src/can.c     ****     __HAL_RCC_CAN1_CLK_DISABLE();
 227              		.loc 1 94 0
 228 000c 074A     		ldr	r2, .L17+4
 229 000e 136C     		ldr	r3, [r2, #64]
 230 0010 23F00073 		bic	r3, r3, #33554432
 231 0014 1364     		str	r3, [r2, #64]
  95:Src/can.c     **** 
  96:Src/can.c     ****     /**CAN1 GPIO Configuration
  97:Src/can.c     ****     PB8     ------> CAN1_RX
  98:Src/can.c     ****     PB9     ------> CAN1_TX
  99:Src/can.c     ****     */
 100:Src/can.c     ****     HAL_GPIO_DeInit(GPIOB, GPIO_PIN_8|GPIO_PIN_9);
 232              		.loc 1 100 0
 233 0016 4FF44071 		mov	r1, #768
 234 001a 0548     		ldr	r0, .L17+8
 235              	.LVL12:
 236 001c FFF7FEFF 		bl	HAL_GPIO_DeInit
 237              	.LVL13:
 101:Src/can.c     **** 
ARM GAS  /var/folders/kp/233_yh1j2dd9gvn3v4mq48f40000gn/T//cc6c02qJ.s 			page 7


 102:Src/can.c     ****     /* CAN1 interrupt Deinit */
 103:Src/can.c     ****     HAL_NVIC_DisableIRQ(CAN1_RX0_IRQn);
 238              		.loc 1 103 0
 239 0020 1420     		movs	r0, #20
 240 0022 FFF7FEFF 		bl	HAL_NVIC_DisableIRQ
 241              	.LVL14:
 104:Src/can.c     ****   /* USER CODE BEGIN CAN1_MspDeInit 1 */
 105:Src/can.c     **** 
 106:Src/can.c     ****   /* USER CODE END CAN1_MspDeInit 1 */
 107:Src/can.c     ****   }
 108:Src/can.c     **** }
 242              		.loc 1 108 0
 243 0026 F0E7     		b	.L13
 244              	.L18:
 245              		.align	2
 246              	.L17:
 247 0028 00640040 		.word	1073767424
 248 002c 00380240 		.word	1073887232
 249 0030 00040240 		.word	1073873920
 250              		.cfi_endproc
 251              	.LFE132:
 253              		.comm	hcan1,40,4
 254              		.text
 255              	.Letext0:
 256              		.file 2 "/Users/geekzjk/opt/gcc-arm-none-eabi-6-2017-q2-update/arm-none-eabi/include/machine/_defa
 257              		.file 3 "/Users/geekzjk/opt/gcc-arm-none-eabi-6-2017-q2-update/arm-none-eabi/include/sys/_stdint.h
 258              		.file 4 "Drivers/CMSIS/Include/core_cm4.h"
 259              		.file 5 "Drivers/CMSIS/Device/ST/STM32F4xx/Include/system_stm32f4xx.h"
 260              		.file 6 "Drivers/CMSIS/Device/ST/STM32F4xx/Include/stm32f405xx.h"
 261              		.file 7 "Drivers/CMSIS/Device/ST/STM32F4xx/Include/stm32f4xx.h"
 262              		.file 8 "Drivers/STM32F4xx_HAL_Driver/Inc/stm32f4xx_hal_def.h"
 263              		.file 9 "Drivers/STM32F4xx_HAL_Driver/Inc/stm32f4xx_hal_gpio.h"
 264              		.file 10 "Drivers/STM32F4xx_HAL_Driver/Inc/stm32f4xx_hal_can.h"
 265              		.file 11 "Drivers/STM32F4xx_HAL_Driver/Inc/stm32f4xx_hal.h"
 266              		.file 12 "Inc/can.h"
 267              		.file 13 "Drivers/STM32F4xx_HAL_Driver/Inc/stm32f4xx_hal_cortex.h"
 268              		.file 14 "Inc/main.h"
ARM GAS  /var/folders/kp/233_yh1j2dd9gvn3v4mq48f40000gn/T//cc6c02qJ.s 			page 8

