ARM GAS  /var/folders/kp/233_yh1j2dd9gvn3v4mq48f40000gn/T//cc4Xkfdy.s 			page 1


   1              		.cpu cortex-m4
   2              		.eabi_attribute 27, 1
   3              		.eabi_attribute 28, 1
   4              		.eabi_attribute 20, 1
   5              		.eabi_attribute 21, 1
   6              		.eabi_attribute 23, 3
   7              		.eabi_attribute 24, 1
   8              		.eabi_attribute 25, 1
   9              		.eabi_attribute 26, 1
  10              		.eabi_attribute 30, 1
  11              		.eabi_attribute 34, 1
  12              		.eabi_attribute 18, 4
  13              		.file	"LED.c"
  14              		.text
  15              	.Ltext0:
  16              		.cfi_sections	.debug_frame
  17              		.section	.text.LED_init,"ax",%progbits
  18              		.align	1
  19              		.global	LED_init
  20              		.syntax unified
  21              		.thumb
  22              		.thumb_func
  23              		.fpu fpv4-sp-d16
  25              	LED_init:
  26              	.LFB130:
  27              		.file 1 "Src/User/LED.c"
   1:Src/User/LED.c **** #include "LED.h"
   2:Src/User/LED.c **** 
   3:Src/User/LED.c **** void LED_init()
   4:Src/User/LED.c **** {
  28              		.loc 1 4 0
  29              		.cfi_startproc
  30              		@ args = 0, pretend = 0, frame = 0
  31              		@ frame_needed = 0, uses_anonymous_args = 0
  32 0000 10B5     		push	{r4, lr}
  33              	.LCFI0:
  34              		.cfi_def_cfa_offset 8
  35              		.cfi_offset 4, -8
  36              		.cfi_offset 14, -4
   5:Src/User/LED.c ****     WS2812_init();
  37              		.loc 1 5 0
  38 0002 FFF7FEFF 		bl	WS2812_init
  39              	.LVL0:
  40              	.LBB2:
   6:Src/User/LED.c ****     for (uint8_t i = 0; i < LED_NUM / 2; i++)
  41              		.loc 1 6 0
  42 0006 0024     		movs	r4, #0
  43 0008 17E0     		b	.L2
  44              	.LVL1:
  45              	.L3:
   7:Src/User/LED.c ****     {
   8:Src/User/LED.c ****         led_string[i + 4].r = 50;
  46              		.loc 1 8 0 discriminator 3
  47 000a 221D     		adds	r2, r4, #4
  48 000c 0C49     		ldr	r1, .L5
  49 000e 02EB4202 		add	r2, r2, r2, lsl #1
  50 0012 8818     		adds	r0, r1, r2
ARM GAS  /var/folders/kp/233_yh1j2dd9gvn3v4mq48f40000gn/T//cc4Xkfdy.s 			page 2


  51 0014 3223     		movs	r3, #50
  52 0016 8B54     		strb	r3, [r1, r2]
   9:Src/User/LED.c ****         led_string[i + 4].g = 50;
  53              		.loc 1 9 0 discriminator 3
  54 0018 4370     		strb	r3, [r0, #1]
  10:Src/User/LED.c ****         led_string[i + 4].b = 50;
  55              		.loc 1 10 0 discriminator 3
  56 001a 8370     		strb	r3, [r0, #2]
  11:Src/User/LED.c ****         led_string[LED_NUM / 2 - 1 - i].r = 50;
  57              		.loc 1 11 0 discriminator 3
  58 001c C4F10302 		rsb	r2, r4, #3
  59 0020 02EB4202 		add	r2, r2, r2, lsl #1
  60 0024 8818     		adds	r0, r1, r2
  61 0026 8B54     		strb	r3, [r1, r2]
  12:Src/User/LED.c ****         led_string[LED_NUM / 2 - 1 - i].g = 50;
  62              		.loc 1 12 0 discriminator 3
  63 0028 4370     		strb	r3, [r0, #1]
  13:Src/User/LED.c ****         led_string[LED_NUM / 2 - 1 - i].b = 50;
  64              		.loc 1 13 0 discriminator 3
  65 002a 8370     		strb	r3, [r0, #2]
  14:Src/User/LED.c ****         WS2812_update();
  66              		.loc 1 14 0 discriminator 3
  67 002c FFF7FEFF 		bl	WS2812_update
  68              	.LVL2:
  15:Src/User/LED.c ****         HAL_Delay(200);
  69              		.loc 1 15 0 discriminator 3
  70 0030 C820     		movs	r0, #200
  71 0032 FFF7FEFF 		bl	HAL_Delay
  72              	.LVL3:
   6:Src/User/LED.c ****     {
  73              		.loc 1 6 0 discriminator 3
  74 0036 0134     		adds	r4, r4, #1
  75              	.LVL4:
  76 0038 E4B2     		uxtb	r4, r4
  77              	.LVL5:
  78              	.L2:
   6:Src/User/LED.c ****     {
  79              		.loc 1 6 0 is_stmt 0 discriminator 1
  80 003a 032C     		cmp	r4, #3
  81 003c E5D9     		bls	.L3
  82              	.LBE2:
  16:Src/User/LED.c ****     }
  17:Src/User/LED.c **** }
  83              		.loc 1 17 0 is_stmt 1
  84 003e 10BD     		pop	{r4, pc}
  85              	.LVL6:
  86              	.L6:
  87              		.align	2
  88              	.L5:
  89 0040 00000000 		.word	led_string
  90              		.cfi_endproc
  91              	.LFE130:
  93              		.section	.text.LED_stop,"ax",%progbits
  94              		.align	1
  95              		.global	LED_stop
  96              		.syntax unified
  97              		.thumb
ARM GAS  /var/folders/kp/233_yh1j2dd9gvn3v4mq48f40000gn/T//cc4Xkfdy.s 			page 3


  98              		.thumb_func
  99              		.fpu fpv4-sp-d16
 101              	LED_stop:
 102              	.LFB131:
  18:Src/User/LED.c **** 
  19:Src/User/LED.c **** void LED_stop()
  20:Src/User/LED.c **** {
 103              		.loc 1 20 0
 104              		.cfi_startproc
 105              		@ args = 0, pretend = 0, frame = 0
 106              		@ frame_needed = 0, uses_anonymous_args = 0
 107 0000 10B5     		push	{r4, lr}
 108              	.LCFI1:
 109              		.cfi_def_cfa_offset 8
 110              		.cfi_offset 4, -8
 111              		.cfi_offset 14, -4
 112              	.LVL7:
 113              	.LBB3:
  21:Src/User/LED.c ****     for (uint8_t i = 0; i < LED_NUM; i++)
 114              		.loc 1 21 0
 115 0002 0023     		movs	r3, #0
 116 0004 0AE0     		b	.L8
 117              	.LVL8:
 118              	.L9:
  22:Src/User/LED.c ****     {
  23:Src/User/LED.c ****         led_string[i].r = 255;
 119              		.loc 1 23 0 discriminator 3
 120 0006 0848     		ldr	r0, .L11
 121 0008 03EB4301 		add	r1, r3, r3, lsl #1
 122 000c 4218     		adds	r2, r0, r1
 123 000e FF24     		movs	r4, #255
 124 0010 4454     		strb	r4, [r0, r1]
  24:Src/User/LED.c ****         led_string[i].g = 0;
 125              		.loc 1 24 0 discriminator 3
 126 0012 0021     		movs	r1, #0
 127 0014 5170     		strb	r1, [r2, #1]
  25:Src/User/LED.c ****         led_string[i].b = 0;
 128              		.loc 1 25 0 discriminator 3
 129 0016 9170     		strb	r1, [r2, #2]
  21:Src/User/LED.c ****     {
 130              		.loc 1 21 0 discriminator 3
 131 0018 0133     		adds	r3, r3, #1
 132              	.LVL9:
 133 001a DBB2     		uxtb	r3, r3
 134              	.LVL10:
 135              	.L8:
  21:Src/User/LED.c ****     {
 136              		.loc 1 21 0 is_stmt 0 discriminator 1
 137 001c 072B     		cmp	r3, #7
 138 001e F2D9     		bls	.L9
 139              	.LBE3:
  26:Src/User/LED.c ****     }
  27:Src/User/LED.c ****     WS2812_update();
 140              		.loc 1 27 0 is_stmt 1
 141 0020 FFF7FEFF 		bl	WS2812_update
 142              	.LVL11:
 143 0024 10BD     		pop	{r4, pc}
ARM GAS  /var/folders/kp/233_yh1j2dd9gvn3v4mq48f40000gn/T//cc4Xkfdy.s 			page 4


 144              	.L12:
 145 0026 00BF     		.align	2
 146              	.L11:
 147 0028 00000000 		.word	led_string
 148              		.cfi_endproc
 149              	.LFE131:
 151              		.section	.text.LED_go,"ax",%progbits
 152              		.align	1
 153              		.global	LED_go
 154              		.syntax unified
 155              		.thumb
 156              		.thumb_func
 157              		.fpu fpv4-sp-d16
 159              	LED_go:
 160              	.LFB132:
  28:Src/User/LED.c **** }
  29:Src/User/LED.c **** 
  30:Src/User/LED.c **** void LED_go()
  31:Src/User/LED.c **** {
 161              		.loc 1 31 0
 162              		.cfi_startproc
 163              		@ args = 0, pretend = 0, frame = 0
 164              		@ frame_needed = 0, uses_anonymous_args = 0
 165 0000 10B5     		push	{r4, lr}
 166              	.LCFI2:
 167              		.cfi_def_cfa_offset 8
 168              		.cfi_offset 4, -8
 169              		.cfi_offset 14, -4
 170              	.LVL12:
 171              	.LBB4:
  32:Src/User/LED.c ****     for (uint8_t i = 0; i < LED_NUM; i++)
 172              		.loc 1 32 0
 173 0002 0023     		movs	r3, #0
 174 0004 0AE0     		b	.L14
 175              	.LVL13:
 176              	.L15:
  33:Src/User/LED.c ****     {
  34:Src/User/LED.c ****         led_string[i].r = 0;
 177              		.loc 1 34 0 discriminator 3
 178 0006 0848     		ldr	r0, .L17
 179 0008 03EB4301 		add	r1, r3, r3, lsl #1
 180 000c 4218     		adds	r2, r0, r1
 181 000e 0024     		movs	r4, #0
 182 0010 4454     		strb	r4, [r0, r1]
  35:Src/User/LED.c ****         led_string[i].g = 255;
 183              		.loc 1 35 0 discriminator 3
 184 0012 FF21     		movs	r1, #255
 185 0014 5170     		strb	r1, [r2, #1]
  36:Src/User/LED.c ****         led_string[i].b = 255;
 186              		.loc 1 36 0 discriminator 3
 187 0016 9170     		strb	r1, [r2, #2]
  32:Src/User/LED.c ****     {
 188              		.loc 1 32 0 discriminator 3
 189 0018 0133     		adds	r3, r3, #1
 190              	.LVL14:
 191 001a DBB2     		uxtb	r3, r3
 192              	.LVL15:
ARM GAS  /var/folders/kp/233_yh1j2dd9gvn3v4mq48f40000gn/T//cc4Xkfdy.s 			page 5


 193              	.L14:
  32:Src/User/LED.c ****     {
 194              		.loc 1 32 0 is_stmt 0 discriminator 1
 195 001c 072B     		cmp	r3, #7
 196 001e F2D9     		bls	.L15
 197              	.LBE4:
  37:Src/User/LED.c ****     }
  38:Src/User/LED.c ****     WS2812_update();
 198              		.loc 1 38 0 is_stmt 1
 199 0020 FFF7FEFF 		bl	WS2812_update
 200              	.LVL16:
 201 0024 10BD     		pop	{r4, pc}
 202              	.L18:
 203 0026 00BF     		.align	2
 204              	.L17:
 205 0028 00000000 		.word	led_string
 206              		.cfi_endproc
 207              	.LFE132:
 209              		.section	.text.LED_left,"ax",%progbits
 210              		.align	1
 211              		.global	LED_left
 212              		.syntax unified
 213              		.thumb
 214              		.thumb_func
 215              		.fpu fpv4-sp-d16
 217              	LED_left:
 218              	.LFB133:
  39:Src/User/LED.c **** }
  40:Src/User/LED.c **** 
  41:Src/User/LED.c **** void LED_left()
  42:Src/User/LED.c **** {
 219              		.loc 1 42 0
 220              		.cfi_startproc
 221              		@ args = 0, pretend = 0, frame = 0
 222              		@ frame_needed = 0, uses_anonymous_args = 0
 223 0000 10B5     		push	{r4, lr}
 224              	.LCFI3:
 225              		.cfi_def_cfa_offset 8
 226              		.cfi_offset 4, -8
 227              		.cfi_offset 14, -4
 228              	.LVL17:
 229              	.LBB5:
  43:Src/User/LED.c ****     for (uint8_t i = 0; i < LED_NUM / 2; i++)
 230              		.loc 1 43 0
 231 0002 0023     		movs	r3, #0
 232 0004 0AE0     		b	.L20
 233              	.LVL18:
 234              	.L21:
  44:Src/User/LED.c ****     {
  45:Src/User/LED.c ****         led_string[i].r = 255;
 235              		.loc 1 45 0 discriminator 3
 236 0006 084C     		ldr	r4, .L23
 237 0008 03EB4300 		add	r0, r3, r3, lsl #1
 238 000c 2218     		adds	r2, r4, r0
 239 000e FF21     		movs	r1, #255
 240 0010 2154     		strb	r1, [r4, r0]
  46:Src/User/LED.c ****         led_string[i].g = 255;
ARM GAS  /var/folders/kp/233_yh1j2dd9gvn3v4mq48f40000gn/T//cc4Xkfdy.s 			page 6


 241              		.loc 1 46 0 discriminator 3
 242 0012 5170     		strb	r1, [r2, #1]
  47:Src/User/LED.c ****         led_string[i].b = 0;
 243              		.loc 1 47 0 discriminator 3
 244 0014 0021     		movs	r1, #0
 245 0016 9170     		strb	r1, [r2, #2]
  43:Src/User/LED.c ****     {
 246              		.loc 1 43 0 discriminator 3
 247 0018 0133     		adds	r3, r3, #1
 248              	.LVL19:
 249 001a DBB2     		uxtb	r3, r3
 250              	.LVL20:
 251              	.L20:
  43:Src/User/LED.c ****     {
 252              		.loc 1 43 0 is_stmt 0 discriminator 1
 253 001c 032B     		cmp	r3, #3
 254 001e F2D9     		bls	.L21
 255              	.LBE5:
  48:Src/User/LED.c ****     }
  49:Src/User/LED.c ****     WS2812_update();
 256              		.loc 1 49 0 is_stmt 1
 257 0020 FFF7FEFF 		bl	WS2812_update
 258              	.LVL21:
 259 0024 10BD     		pop	{r4, pc}
 260              	.L24:
 261 0026 00BF     		.align	2
 262              	.L23:
 263 0028 00000000 		.word	led_string
 264              		.cfi_endproc
 265              	.LFE133:
 267              		.section	.text.LED_right,"ax",%progbits
 268              		.align	1
 269              		.global	LED_right
 270              		.syntax unified
 271              		.thumb
 272              		.thumb_func
 273              		.fpu fpv4-sp-d16
 275              	LED_right:
 276              	.LFB134:
  50:Src/User/LED.c **** }
  51:Src/User/LED.c **** 
  52:Src/User/LED.c **** void LED_right()
  53:Src/User/LED.c **** {
 277              		.loc 1 53 0
 278              		.cfi_startproc
 279              		@ args = 0, pretend = 0, frame = 0
 280              		@ frame_needed = 0, uses_anonymous_args = 0
 281 0000 10B5     		push	{r4, lr}
 282              	.LCFI4:
 283              		.cfi_def_cfa_offset 8
 284              		.cfi_offset 4, -8
 285              		.cfi_offset 14, -4
 286              	.LVL22:
 287              	.LBB6:
  54:Src/User/LED.c ****     for (uint8_t i = 4; i < LED_NUM; i++)
 288              		.loc 1 54 0
 289 0002 0423     		movs	r3, #4
ARM GAS  /var/folders/kp/233_yh1j2dd9gvn3v4mq48f40000gn/T//cc4Xkfdy.s 			page 7


 290 0004 0AE0     		b	.L26
 291              	.LVL23:
 292              	.L27:
  55:Src/User/LED.c ****     {
  56:Src/User/LED.c ****         led_string[i].r = 255;
 293              		.loc 1 56 0 discriminator 3
 294 0006 084C     		ldr	r4, .L29
 295 0008 03EB4300 		add	r0, r3, r3, lsl #1
 296 000c 2218     		adds	r2, r4, r0
 297 000e FF21     		movs	r1, #255
 298 0010 2154     		strb	r1, [r4, r0]
  57:Src/User/LED.c ****         led_string[i].g = 255;
 299              		.loc 1 57 0 discriminator 3
 300 0012 5170     		strb	r1, [r2, #1]
  58:Src/User/LED.c ****         led_string[i].b = 0;
 301              		.loc 1 58 0 discriminator 3
 302 0014 0021     		movs	r1, #0
 303 0016 9170     		strb	r1, [r2, #2]
  54:Src/User/LED.c ****     {
 304              		.loc 1 54 0 discriminator 3
 305 0018 0133     		adds	r3, r3, #1
 306              	.LVL24:
 307 001a DBB2     		uxtb	r3, r3
 308              	.LVL25:
 309              	.L26:
  54:Src/User/LED.c ****     {
 310              		.loc 1 54 0 is_stmt 0 discriminator 1
 311 001c 072B     		cmp	r3, #7
 312 001e F2D9     		bls	.L27
 313              	.LBE6:
  59:Src/User/LED.c ****     }
  60:Src/User/LED.c ****     WS2812_update();
 314              		.loc 1 60 0 is_stmt 1
 315 0020 FFF7FEFF 		bl	WS2812_update
 316              	.LVL26:
 317 0024 10BD     		pop	{r4, pc}
 318              	.L30:
 319 0026 00BF     		.align	2
 320              	.L29:
 321 0028 00000000 		.word	led_string
 322              		.cfi_endproc
 323              	.LFE134:
 325              		.section	.text.LED_off,"ax",%progbits
 326              		.align	1
 327              		.global	LED_off
 328              		.syntax unified
 329              		.thumb
 330              		.thumb_func
 331              		.fpu fpv4-sp-d16
 333              	LED_off:
 334              	.LFB135:
  61:Src/User/LED.c **** }
  62:Src/User/LED.c **** 
  63:Src/User/LED.c **** void LED_off()
  64:Src/User/LED.c **** {
 335              		.loc 1 64 0
 336              		.cfi_startproc
ARM GAS  /var/folders/kp/233_yh1j2dd9gvn3v4mq48f40000gn/T//cc4Xkfdy.s 			page 8


 337              		@ args = 0, pretend = 0, frame = 0
 338              		@ frame_needed = 0, uses_anonymous_args = 0
 339 0000 10B5     		push	{r4, lr}
 340              	.LCFI5:
 341              		.cfi_def_cfa_offset 8
 342              		.cfi_offset 4, -8
 343              		.cfi_offset 14, -4
 344              	.LVL27:
 345              	.LBB7:
  65:Src/User/LED.c ****     for (uint8_t i = 0; i < LED_NUM; i++)
 346              		.loc 1 65 0
 347 0002 0023     		movs	r3, #0
 348 0004 09E0     		b	.L32
 349              	.LVL28:
 350              	.L33:
  66:Src/User/LED.c ****     {
  67:Src/User/LED.c ****         led_string[i].r = 0;
 351              		.loc 1 67 0 discriminator 3
 352 0006 074C     		ldr	r4, .L35
 353 0008 03EB4300 		add	r0, r3, r3, lsl #1
 354 000c 2118     		adds	r1, r4, r0
 355 000e 0022     		movs	r2, #0
 356 0010 2254     		strb	r2, [r4, r0]
  68:Src/User/LED.c ****         led_string[i].g = 0;
 357              		.loc 1 68 0 discriminator 3
 358 0012 4A70     		strb	r2, [r1, #1]
  69:Src/User/LED.c ****         led_string[i].b = 0;
 359              		.loc 1 69 0 discriminator 3
 360 0014 8A70     		strb	r2, [r1, #2]
  65:Src/User/LED.c ****     {
 361              		.loc 1 65 0 discriminator 3
 362 0016 0133     		adds	r3, r3, #1
 363              	.LVL29:
 364 0018 DBB2     		uxtb	r3, r3
 365              	.LVL30:
 366              	.L32:
  65:Src/User/LED.c ****     {
 367              		.loc 1 65 0 is_stmt 0 discriminator 1
 368 001a 072B     		cmp	r3, #7
 369 001c F3D9     		bls	.L33
 370              	.LBE7:
  70:Src/User/LED.c ****     }
  71:Src/User/LED.c ****     WS2812_update();
 371              		.loc 1 71 0 is_stmt 1
 372 001e FFF7FEFF 		bl	WS2812_update
 373              	.LVL31:
 374 0022 10BD     		pop	{r4, pc}
 375              	.L36:
 376              		.align	2
 377              	.L35:
 378 0024 00000000 		.word	led_string
 379              		.cfi_endproc
 380              	.LFE135:
 382              		.section	.text.LED_system_start,"ax",%progbits
 383              		.align	1
 384              		.global	LED_system_start
 385              		.syntax unified
ARM GAS  /var/folders/kp/233_yh1j2dd9gvn3v4mq48f40000gn/T//cc4Xkfdy.s 			page 9


 386              		.thumb
 387              		.thumb_func
 388              		.fpu fpv4-sp-d16
 390              	LED_system_start:
 391              	.LFB136:
  72:Src/User/LED.c **** }
  73:Src/User/LED.c **** 
  74:Src/User/LED.c **** void LED_system_start(float a)
  75:Src/User/LED.c **** {
 392              		.loc 1 75 0
 393              		.cfi_startproc
 394              		@ args = 0, pretend = 0, frame = 8
 395              		@ frame_needed = 0, uses_anonymous_args = 0
 396              	.LVL32:
 397 0000 10B5     		push	{r4, lr}
 398              	.LCFI6:
 399              		.cfi_def_cfa_offset 8
 400              		.cfi_offset 4, -8
 401              		.cfi_offset 14, -4
 402 0002 82B0     		sub	sp, sp, #8
 403              	.LCFI7:
 404              		.cfi_def_cfa_offset 16
 405              	.LVL33:
 406              	.LBB8:
  76:Src/User/LED.c ****     for (uint8_t i = 0; i < LED_NUM; i++)
 407              		.loc 1 76 0
 408 0004 0023     		movs	r3, #0
 409 0006 09E0     		b	.L38
 410              	.LVL34:
 411              	.L39:
  77:Src/User/LED.c ****     {
  78:Src/User/LED.c ****         led_string[i].r = 0;
 412              		.loc 1 78 0 discriminator 3
 413 0008 134C     		ldr	r4, .L41
 414 000a 03EB4300 		add	r0, r3, r3, lsl #1
 415 000e 2118     		adds	r1, r4, r0
 416 0010 0022     		movs	r2, #0
 417 0012 2254     		strb	r2, [r4, r0]
  79:Src/User/LED.c ****         led_string[i].g = 0;
 418              		.loc 1 79 0 discriminator 3
 419 0014 4A70     		strb	r2, [r1, #1]
  80:Src/User/LED.c ****         led_string[i].b = 0;
 420              		.loc 1 80 0 discriminator 3
 421 0016 8A70     		strb	r2, [r1, #2]
  76:Src/User/LED.c ****     {
 422              		.loc 1 76 0 discriminator 3
 423 0018 0133     		adds	r3, r3, #1
 424              	.LVL35:
 425 001a DBB2     		uxtb	r3, r3
 426              	.LVL36:
 427              	.L38:
  76:Src/User/LED.c ****     {
 428              		.loc 1 76 0 is_stmt 0 discriminator 1
 429 001c 072B     		cmp	r3, #7
 430 001e F3D9     		bls	.L39
 431              	.LBE8:
  81:Src/User/LED.c ****     }
ARM GAS  /var/folders/kp/233_yh1j2dd9gvn3v4mq48f40000gn/T//cc4Xkfdy.s 			page 10


  82:Src/User/LED.c ****     led_string[(uint8_t)(a / 90.0f * 7 + 7)].r = 255;
 432              		.loc 1 82 0 is_stmt 1
 433 0020 9FED0E7A 		vldr.32	s14, .L41+4
 434 0024 C0EE077A 		vdiv.f32	s15, s0, s14
 435 0028 B1EE0C7A 		vmov.f32	s14, #7.0e+0
 436 002c 67EE877A 		vmul.f32	s15, s15, s14
 437 0030 77EE877A 		vadd.f32	s15, s15, s14
 438 0034 FCEEE77A 		vcvt.u32.f32	s15, s15
 439 0038 CDED017A 		vstr.32	s15, [sp, #4]	@ int
 440 003c 9DF80430 		ldrb	r3, [sp, #4]	@ zero_extendqisi2
 441              	.LVL37:
 442 0040 0548     		ldr	r0, .L41
 443 0042 03EB4303 		add	r3, r3, r3, lsl #1
 444 0046 C118     		adds	r1, r0, r3
 445 0048 FF22     		movs	r2, #255
 446 004a C254     		strb	r2, [r0, r3]
  83:Src/User/LED.c ****     led_string[(uint8_t)(a / 90.0f * 7 + 7)].g = 255;
 447              		.loc 1 83 0
 448 004c 4A70     		strb	r2, [r1, #1]
  84:Src/User/LED.c ****     led_string[(uint8_t)(a / 90.0f * 7 + 7)].b = 255;
 449              		.loc 1 84 0
 450 004e 8A70     		strb	r2, [r1, #2]
  85:Src/User/LED.c ****     WS2812_update();
 451              		.loc 1 85 0
 452 0050 FFF7FEFF 		bl	WS2812_update
 453              	.LVL38:
  86:Src/User/LED.c **** }...
 454              		.loc 1 86 0
 455 0054 02B0     		add	sp, sp, #8
 456              	.LCFI8:
 457              		.cfi_def_cfa_offset 8
 458              		@ sp needed
 459 0056 10BD     		pop	{r4, pc}
 460              	.L42:
 461              		.align	2
 462              	.L41:
 463 0058 00000000 		.word	led_string
 464 005c 0000B442 		.word	1119092736
 465              		.cfi_endproc
 466              	.LFE136:
 468              		.text
 469              	.Letext0:
 470              		.file 2 "/Users/geekzjk/opt/gcc-arm-none-eabi-6-2017-q2-update/arm-none-eabi/include/machine/_defa
 471              		.file 3 "/Users/geekzjk/opt/gcc-arm-none-eabi-6-2017-q2-update/arm-none-eabi/include/sys/_stdint.h
 472              		.file 4 "Drivers/CMSIS/Include/core_cm4.h"
 473              		.file 5 "Drivers/CMSIS/Device/ST/STM32F4xx/Include/system_stm32f4xx.h"
 474              		.file 6 "Drivers/CMSIS/Device/ST/STM32F4xx/Include/stm32f405xx.h"
 475              		.file 7 "Drivers/STM32F4xx_HAL_Driver/Inc/stm32f4xx_hal_def.h"
 476              		.file 8 "Drivers/STM32F4xx_HAL_Driver/Inc/stm32f4xx_hal_dma.h"
 477              		.file 9 "Drivers/STM32F4xx_HAL_Driver/Inc/stm32f4xx_hal_spi.h"
 478              		.file 10 "Drivers/STM32F4xx_HAL_Driver/Inc/stm32f4xx_hal_tim.h"
 479              		.file 11 "Drivers/STM32F4xx_HAL_Driver/Inc/stm32f4xx_hal.h"
 480              		.file 12 "Inc/tim.h"
 481              		.file 13 "Inc/spi.h"
 482              		.file 14 "/Users/geekzjk/opt/gcc-arm-none-eabi-6-2017-q2-update/arm-none-eabi/include/sys/lock.h"
 483              		.file 15 "/Users/geekzjk/opt/gcc-arm-none-eabi-6-2017-q2-update/arm-none-eabi/include/sys/_types.h
 484              		.file 16 "/Users/geekzjk/opt/gcc-arm-none-eabi-6-2017-q2-update/lib/gcc/arm-none-eabi/6.3.1/includ
ARM GAS  /var/folders/kp/233_yh1j2dd9gvn3v4mq48f40000gn/T//cc4Xkfdy.s 			page 11


 485              		.file 17 "/Users/geekzjk/opt/gcc-arm-none-eabi-6-2017-q2-update/arm-none-eabi/include/sys/reent.h"
 486              		.file 18 "Inc/User/WS2812B.h"
ARM GAS  /var/folders/kp/233_yh1j2dd9gvn3v4mq48f40000gn/T//cc4Xkfdy.s 			page 12


DEFINED SYMBOLS
                            *ABS*:0000000000000000 LED.c
/var/folders/kp/233_yh1j2dd9gvn3v4mq48f40000gn/T//cc4Xkfdy.s:18     .text.LED_init:0000000000000000 $t
/var/folders/kp/233_yh1j2dd9gvn3v4mq48f40000gn/T//cc4Xkfdy.s:25     .text.LED_init:0000000000000000 LED_init
/var/folders/kp/233_yh1j2dd9gvn3v4mq48f40000gn/T//cc4Xkfdy.s:89     .text.LED_init:0000000000000040 $d
/var/folders/kp/233_yh1j2dd9gvn3v4mq48f40000gn/T//cc4Xkfdy.s:94     .text.LED_stop:0000000000000000 $t
/var/folders/kp/233_yh1j2dd9gvn3v4mq48f40000gn/T//cc4Xkfdy.s:101    .text.LED_stop:0000000000000000 LED_stop
/var/folders/kp/233_yh1j2dd9gvn3v4mq48f40000gn/T//cc4Xkfdy.s:147    .text.LED_stop:0000000000000028 $d
/var/folders/kp/233_yh1j2dd9gvn3v4mq48f40000gn/T//cc4Xkfdy.s:152    .text.LED_go:0000000000000000 $t
/var/folders/kp/233_yh1j2dd9gvn3v4mq48f40000gn/T//cc4Xkfdy.s:159    .text.LED_go:0000000000000000 LED_go
/var/folders/kp/233_yh1j2dd9gvn3v4mq48f40000gn/T//cc4Xkfdy.s:205    .text.LED_go:0000000000000028 $d
/var/folders/kp/233_yh1j2dd9gvn3v4mq48f40000gn/T//cc4Xkfdy.s:210    .text.LED_left:0000000000000000 $t
/var/folders/kp/233_yh1j2dd9gvn3v4mq48f40000gn/T//cc4Xkfdy.s:217    .text.LED_left:0000000000000000 LED_left
/var/folders/kp/233_yh1j2dd9gvn3v4mq48f40000gn/T//cc4Xkfdy.s:263    .text.LED_left:0000000000000028 $d
/var/folders/kp/233_yh1j2dd9gvn3v4mq48f40000gn/T//cc4Xkfdy.s:268    .text.LED_right:0000000000000000 $t
/var/folders/kp/233_yh1j2dd9gvn3v4mq48f40000gn/T//cc4Xkfdy.s:275    .text.LED_right:0000000000000000 LED_right
/var/folders/kp/233_yh1j2dd9gvn3v4mq48f40000gn/T//cc4Xkfdy.s:321    .text.LED_right:0000000000000028 $d
/var/folders/kp/233_yh1j2dd9gvn3v4mq48f40000gn/T//cc4Xkfdy.s:326    .text.LED_off:0000000000000000 $t
/var/folders/kp/233_yh1j2dd9gvn3v4mq48f40000gn/T//cc4Xkfdy.s:333    .text.LED_off:0000000000000000 LED_off
/var/folders/kp/233_yh1j2dd9gvn3v4mq48f40000gn/T//cc4Xkfdy.s:378    .text.LED_off:0000000000000024 $d
/var/folders/kp/233_yh1j2dd9gvn3v4mq48f40000gn/T//cc4Xkfdy.s:383    .text.LED_system_start:0000000000000000 $t
/var/folders/kp/233_yh1j2dd9gvn3v4mq48f40000gn/T//cc4Xkfdy.s:390    .text.LED_system_start:0000000000000000 LED_system_start
/var/folders/kp/233_yh1j2dd9gvn3v4mq48f40000gn/T//cc4Xkfdy.s:463    .text.LED_system_start:0000000000000058 $d
                     .debug_frame:0000000000000010 $d

UNDEFINED SYMBOLS
WS2812_init
WS2812_update
HAL_Delay
led_string
