ARM GAS  /var/folders/kp/233_yh1j2dd9gvn3v4mq48f40000gn/T//ccdAyJhv.s 			page 1


   1              		.cpu cortex-m4
   2              		.eabi_attribute 27, 1
   3              		.eabi_attribute 28, 1
   4              		.eabi_attribute 20, 1
   5              		.eabi_attribute 21, 1
   6              		.eabi_attribute 23, 3
   7              		.eabi_attribute 24, 1
   8              		.eabi_attribute 25, 1
   9              		.eabi_attribute 26, 1
  10              		.eabi_attribute 30, 1
  11              		.eabi_attribute 34, 1
  12              		.eabi_attribute 18, 4
  13              		.file	"spi.c"
  14              		.text
  15              	.Ltext0:
  16              		.cfi_sections	.debug_frame
  17              		.section	.text.MX_SPI3_Init,"ax",%progbits
  18              		.align	1
  19              		.global	MX_SPI3_Init
  20              		.syntax unified
  21              		.thumb
  22              		.thumb_func
  23              		.fpu fpv4-sp-d16
  25              	MX_SPI3_Init:
  26              	.LFB130:
  27              		.file 1 "Src/spi.c"
   1:Src/spi.c     **** /**
   2:Src/spi.c     ****   ******************************************************************************
   3:Src/spi.c     ****   * File Name          : SPI.c
   4:Src/spi.c     ****   * Description        : This file provides code for the configuration
   5:Src/spi.c     ****   *                      of the SPI instances.
   6:Src/spi.c     ****   ******************************************************************************
   7:Src/spi.c     ****   * @attention
   8:Src/spi.c     ****   *
   9:Src/spi.c     ****   * <h2><center>&copy; Copyright (c) 2021 STMicroelectronics.
  10:Src/spi.c     ****   * All rights reserved.</center></h2>
  11:Src/spi.c     ****   *
  12:Src/spi.c     ****   * This software component is licensed by ST under BSD 3-Clause license,
  13:Src/spi.c     ****   * the "License"; You may not use this file except in compliance with the
  14:Src/spi.c     ****   * License. You may obtain a copy of the License at:
  15:Src/spi.c     ****   *                        opensource.org/licenses/BSD-3-Clause
  16:Src/spi.c     ****   *
  17:Src/spi.c     ****   ******************************************************************************
  18:Src/spi.c     ****   */
  19:Src/spi.c     **** 
  20:Src/spi.c     **** /* Includes ------------------------------------------------------------------*/
  21:Src/spi.c     **** #include "spi.h"
  22:Src/spi.c     **** 
  23:Src/spi.c     **** /* USER CODE BEGIN 0 */
  24:Src/spi.c     **** 
  25:Src/spi.c     **** /* USER CODE END 0 */
  26:Src/spi.c     **** 
  27:Src/spi.c     **** SPI_HandleTypeDef hspi3;
  28:Src/spi.c     **** DMA_HandleTypeDef hdma_spi3_tx;
  29:Src/spi.c     **** 
  30:Src/spi.c     **** /* SPI3 init function */
  31:Src/spi.c     **** void MX_SPI3_Init(void)
ARM GAS  /var/folders/kp/233_yh1j2dd9gvn3v4mq48f40000gn/T//ccdAyJhv.s 			page 2


  32:Src/spi.c     **** {
  28              		.loc 1 32 0
  29              		.cfi_startproc
  30              		@ args = 0, pretend = 0, frame = 0
  31              		@ frame_needed = 0, uses_anonymous_args = 0
  32 0000 08B5     		push	{r3, lr}
  33              	.LCFI0:
  34              		.cfi_def_cfa_offset 8
  35              		.cfi_offset 3, -8
  36              		.cfi_offset 14, -4
  33:Src/spi.c     **** 
  34:Src/spi.c     ****   hspi3.Instance = SPI3;
  37              		.loc 1 34 0
  38 0002 0E48     		ldr	r0, .L5
  39 0004 0E4B     		ldr	r3, .L5+4
  40 0006 0360     		str	r3, [r0]
  35:Src/spi.c     ****   hspi3.Init.Mode = SPI_MODE_MASTER;
  41              		.loc 1 35 0
  42 0008 4FF48273 		mov	r3, #260
  43 000c 4360     		str	r3, [r0, #4]
  36:Src/spi.c     ****   hspi3.Init.Direction = SPI_DIRECTION_2LINES;
  44              		.loc 1 36 0
  45 000e 0023     		movs	r3, #0
  46 0010 8360     		str	r3, [r0, #8]
  37:Src/spi.c     ****   hspi3.Init.DataSize = SPI_DATASIZE_8BIT;
  47              		.loc 1 37 0
  48 0012 C360     		str	r3, [r0, #12]
  38:Src/spi.c     ****   hspi3.Init.CLKPolarity = SPI_POLARITY_LOW;
  49              		.loc 1 38 0
  50 0014 0361     		str	r3, [r0, #16]
  39:Src/spi.c     ****   hspi3.Init.CLKPhase = SPI_PHASE_2EDGE;
  51              		.loc 1 39 0
  52 0016 0122     		movs	r2, #1
  53 0018 4261     		str	r2, [r0, #20]
  40:Src/spi.c     ****   hspi3.Init.NSS = SPI_NSS_SOFT;
  54              		.loc 1 40 0
  55 001a 4FF40072 		mov	r2, #512
  56 001e 8261     		str	r2, [r0, #24]
  41:Src/spi.c     ****   hspi3.Init.BaudRatePrescaler = SPI_BAUDRATEPRESCALER_8;
  57              		.loc 1 41 0
  58 0020 1022     		movs	r2, #16
  59 0022 C261     		str	r2, [r0, #28]
  42:Src/spi.c     ****   hspi3.Init.FirstBit = SPI_FIRSTBIT_MSB;
  60              		.loc 1 42 0
  61 0024 0362     		str	r3, [r0, #32]
  43:Src/spi.c     ****   hspi3.Init.TIMode = SPI_TIMODE_DISABLE;
  62              		.loc 1 43 0
  63 0026 4362     		str	r3, [r0, #36]
  44:Src/spi.c     ****   hspi3.Init.CRCCalculation = SPI_CRCCALCULATION_DISABLE;
  64              		.loc 1 44 0
  65 0028 8362     		str	r3, [r0, #40]
  45:Src/spi.c     ****   hspi3.Init.CRCPolynomial = 10;
  66              		.loc 1 45 0
  67 002a 0A23     		movs	r3, #10
  68 002c C362     		str	r3, [r0, #44]
  46:Src/spi.c     ****   if (HAL_SPI_Init(&hspi3) != HAL_OK)
  69              		.loc 1 46 0
ARM GAS  /var/folders/kp/233_yh1j2dd9gvn3v4mq48f40000gn/T//ccdAyJhv.s 			page 3


  70 002e FFF7FEFF 		bl	HAL_SPI_Init
  71              	.LVL0:
  72 0032 00B9     		cbnz	r0, .L4
  73              	.L1:
  74 0034 08BD     		pop	{r3, pc}
  75              	.L4:
  47:Src/spi.c     ****   {
  48:Src/spi.c     ****     Error_Handler();
  76              		.loc 1 48 0
  77 0036 FFF7FEFF 		bl	Error_Handler
  78              	.LVL1:
  49:Src/spi.c     ****   }
  50:Src/spi.c     **** 
  51:Src/spi.c     **** }
  79              		.loc 1 51 0
  80 003a FBE7     		b	.L1
  81              	.L6:
  82              		.align	2
  83              	.L5:
  84 003c 00000000 		.word	hspi3
  85 0040 003C0040 		.word	1073757184
  86              		.cfi_endproc
  87              	.LFE130:
  89              		.section	.text.HAL_SPI_MspInit,"ax",%progbits
  90              		.align	1
  91              		.global	HAL_SPI_MspInit
  92              		.syntax unified
  93              		.thumb
  94              		.thumb_func
  95              		.fpu fpv4-sp-d16
  97              	HAL_SPI_MspInit:
  98              	.LFB131:
  52:Src/spi.c     **** 
  53:Src/spi.c     **** void HAL_SPI_MspInit(SPI_HandleTypeDef* spiHandle)
  54:Src/spi.c     **** {
  99              		.loc 1 54 0
 100              		.cfi_startproc
 101              		@ args = 0, pretend = 0, frame = 32
 102              		@ frame_needed = 0, uses_anonymous_args = 0
 103              	.LVL2:
 104 0000 30B5     		push	{r4, r5, lr}
 105              	.LCFI1:
 106              		.cfi_def_cfa_offset 12
 107              		.cfi_offset 4, -12
 108              		.cfi_offset 5, -8
 109              		.cfi_offset 14, -4
 110 0002 89B0     		sub	sp, sp, #36
 111              	.LCFI2:
 112              		.cfi_def_cfa_offset 48
  55:Src/spi.c     **** 
  56:Src/spi.c     ****   GPIO_InitTypeDef GPIO_InitStruct = {0};
 113              		.loc 1 56 0
 114 0004 0023     		movs	r3, #0
 115 0006 0393     		str	r3, [sp, #12]
 116 0008 0493     		str	r3, [sp, #16]
 117 000a 0593     		str	r3, [sp, #20]
 118 000c 0693     		str	r3, [sp, #24]
ARM GAS  /var/folders/kp/233_yh1j2dd9gvn3v4mq48f40000gn/T//ccdAyJhv.s 			page 4


 119 000e 0793     		str	r3, [sp, #28]
  57:Src/spi.c     ****   if(spiHandle->Instance==SPI3)
 120              		.loc 1 57 0
 121 0010 0268     		ldr	r2, [r0]
 122 0012 224B     		ldr	r3, .L13
 123 0014 9A42     		cmp	r2, r3
 124 0016 01D0     		beq	.L11
 125              	.LVL3:
 126              	.L7:
  58:Src/spi.c     ****   {
  59:Src/spi.c     ****   /* USER CODE BEGIN SPI3_MspInit 0 */
  60:Src/spi.c     **** 
  61:Src/spi.c     ****   /* USER CODE END SPI3_MspInit 0 */
  62:Src/spi.c     ****     /* SPI3 clock enable */
  63:Src/spi.c     ****     __HAL_RCC_SPI3_CLK_ENABLE();
  64:Src/spi.c     **** 
  65:Src/spi.c     ****     __HAL_RCC_GPIOC_CLK_ENABLE();
  66:Src/spi.c     ****     /**SPI3 GPIO Configuration
  67:Src/spi.c     ****     PC10     ------> SPI3_SCK
  68:Src/spi.c     ****     PC12     ------> SPI3_MOSI
  69:Src/spi.c     ****     */
  70:Src/spi.c     ****     GPIO_InitStruct.Pin = GPIO_PIN_10|GPIO_PIN_12;
  71:Src/spi.c     ****     GPIO_InitStruct.Mode = GPIO_MODE_AF_PP;
  72:Src/spi.c     ****     GPIO_InitStruct.Pull = GPIO_NOPULL;
  73:Src/spi.c     ****     GPIO_InitStruct.Speed = GPIO_SPEED_FREQ_VERY_HIGH;
  74:Src/spi.c     ****     GPIO_InitStruct.Alternate = GPIO_AF6_SPI3;
  75:Src/spi.c     ****     HAL_GPIO_Init(GPIOC, &GPIO_InitStruct);
  76:Src/spi.c     **** 
  77:Src/spi.c     ****     /* SPI3 DMA Init */
  78:Src/spi.c     ****     /* SPI3_TX Init */
  79:Src/spi.c     ****     hdma_spi3_tx.Instance = DMA1_Stream5;
  80:Src/spi.c     ****     hdma_spi3_tx.Init.Channel = DMA_CHANNEL_0;
  81:Src/spi.c     ****     hdma_spi3_tx.Init.Direction = DMA_MEMORY_TO_PERIPH;
  82:Src/spi.c     ****     hdma_spi3_tx.Init.PeriphInc = DMA_PINC_DISABLE;
  83:Src/spi.c     ****     hdma_spi3_tx.Init.MemInc = DMA_MINC_ENABLE;
  84:Src/spi.c     ****     hdma_spi3_tx.Init.PeriphDataAlignment = DMA_PDATAALIGN_BYTE;
  85:Src/spi.c     ****     hdma_spi3_tx.Init.MemDataAlignment = DMA_MDATAALIGN_BYTE;
  86:Src/spi.c     ****     hdma_spi3_tx.Init.Mode = DMA_CIRCULAR;
  87:Src/spi.c     ****     hdma_spi3_tx.Init.Priority = DMA_PRIORITY_LOW;
  88:Src/spi.c     ****     hdma_spi3_tx.Init.FIFOMode = DMA_FIFOMODE_DISABLE;
  89:Src/spi.c     ****     if (HAL_DMA_Init(&hdma_spi3_tx) != HAL_OK)
  90:Src/spi.c     ****     {
  91:Src/spi.c     ****       Error_Handler();
  92:Src/spi.c     ****     }
  93:Src/spi.c     **** 
  94:Src/spi.c     ****     __HAL_LINKDMA(spiHandle,hdmatx,hdma_spi3_tx);
  95:Src/spi.c     **** 
  96:Src/spi.c     ****   /* USER CODE BEGIN SPI3_MspInit 1 */
  97:Src/spi.c     **** 
  98:Src/spi.c     ****   /* USER CODE END SPI3_MspInit 1 */
  99:Src/spi.c     ****   }
 100:Src/spi.c     **** }
 127              		.loc 1 100 0
 128 0018 09B0     		add	sp, sp, #36
 129              	.LCFI3:
 130              		.cfi_remember_state
 131              		.cfi_def_cfa_offset 12
ARM GAS  /var/folders/kp/233_yh1j2dd9gvn3v4mq48f40000gn/T//ccdAyJhv.s 			page 5


 132              		@ sp needed
 133 001a 30BD     		pop	{r4, r5, pc}
 134              	.LVL4:
 135              	.L11:
 136              	.LCFI4:
 137              		.cfi_restore_state
 138 001c 0446     		mov	r4, r0
 139              	.LBB2:
  63:Src/spi.c     **** 
 140              		.loc 1 63 0
 141 001e 0025     		movs	r5, #0
 142 0020 0195     		str	r5, [sp, #4]
 143 0022 03F5FE33 		add	r3, r3, #130048
 144 0026 1A6C     		ldr	r2, [r3, #64]
 145 0028 42F40042 		orr	r2, r2, #32768
 146 002c 1A64     		str	r2, [r3, #64]
 147 002e 1A6C     		ldr	r2, [r3, #64]
 148 0030 02F40042 		and	r2, r2, #32768
 149 0034 0192     		str	r2, [sp, #4]
 150 0036 019A     		ldr	r2, [sp, #4]
 151              	.LBE2:
 152              	.LBB3:
  65:Src/spi.c     ****     /**SPI3 GPIO Configuration
 153              		.loc 1 65 0
 154 0038 0295     		str	r5, [sp, #8]
 155 003a 1A6B     		ldr	r2, [r3, #48]
 156 003c 42F00402 		orr	r2, r2, #4
 157 0040 1A63     		str	r2, [r3, #48]
 158 0042 1B6B     		ldr	r3, [r3, #48]
 159 0044 03F00403 		and	r3, r3, #4
 160 0048 0293     		str	r3, [sp, #8]
 161 004a 029B     		ldr	r3, [sp, #8]
 162              	.LBE3:
  70:Src/spi.c     ****     GPIO_InitStruct.Mode = GPIO_MODE_AF_PP;
 163              		.loc 1 70 0
 164 004c 4FF4A053 		mov	r3, #5120
 165 0050 0393     		str	r3, [sp, #12]
  71:Src/spi.c     ****     GPIO_InitStruct.Pull = GPIO_NOPULL;
 166              		.loc 1 71 0
 167 0052 0223     		movs	r3, #2
 168 0054 0493     		str	r3, [sp, #16]
  73:Src/spi.c     ****     GPIO_InitStruct.Alternate = GPIO_AF6_SPI3;
 169              		.loc 1 73 0
 170 0056 0323     		movs	r3, #3
 171 0058 0693     		str	r3, [sp, #24]
  74:Src/spi.c     ****     HAL_GPIO_Init(GPIOC, &GPIO_InitStruct);
 172              		.loc 1 74 0
 173 005a 0623     		movs	r3, #6
 174 005c 0793     		str	r3, [sp, #28]
  75:Src/spi.c     **** 
 175              		.loc 1 75 0
 176 005e 03A9     		add	r1, sp, #12
 177 0060 0F48     		ldr	r0, .L13+4
 178              	.LVL5:
 179 0062 FFF7FEFF 		bl	HAL_GPIO_Init
 180              	.LVL6:
  79:Src/spi.c     ****     hdma_spi3_tx.Init.Channel = DMA_CHANNEL_0;
ARM GAS  /var/folders/kp/233_yh1j2dd9gvn3v4mq48f40000gn/T//ccdAyJhv.s 			page 6


 181              		.loc 1 79 0
 182 0066 0F48     		ldr	r0, .L13+8
 183 0068 0F4B     		ldr	r3, .L13+12
 184 006a 0360     		str	r3, [r0]
  80:Src/spi.c     ****     hdma_spi3_tx.Init.Direction = DMA_MEMORY_TO_PERIPH;
 185              		.loc 1 80 0
 186 006c 4560     		str	r5, [r0, #4]
  81:Src/spi.c     ****     hdma_spi3_tx.Init.PeriphInc = DMA_PINC_DISABLE;
 187              		.loc 1 81 0
 188 006e 4023     		movs	r3, #64
 189 0070 8360     		str	r3, [r0, #8]
  82:Src/spi.c     ****     hdma_spi3_tx.Init.MemInc = DMA_MINC_ENABLE;
 190              		.loc 1 82 0
 191 0072 C560     		str	r5, [r0, #12]
  83:Src/spi.c     ****     hdma_spi3_tx.Init.PeriphDataAlignment = DMA_PDATAALIGN_BYTE;
 192              		.loc 1 83 0
 193 0074 4FF48063 		mov	r3, #1024
 194 0078 0361     		str	r3, [r0, #16]
  84:Src/spi.c     ****     hdma_spi3_tx.Init.MemDataAlignment = DMA_MDATAALIGN_BYTE;
 195              		.loc 1 84 0
 196 007a 4561     		str	r5, [r0, #20]
  85:Src/spi.c     ****     hdma_spi3_tx.Init.Mode = DMA_CIRCULAR;
 197              		.loc 1 85 0
 198 007c 8561     		str	r5, [r0, #24]
  86:Src/spi.c     ****     hdma_spi3_tx.Init.Priority = DMA_PRIORITY_LOW;
 199              		.loc 1 86 0
 200 007e 4FF48073 		mov	r3, #256
 201 0082 C361     		str	r3, [r0, #28]
  87:Src/spi.c     ****     hdma_spi3_tx.Init.FIFOMode = DMA_FIFOMODE_DISABLE;
 202              		.loc 1 87 0
 203 0084 0562     		str	r5, [r0, #32]
  88:Src/spi.c     ****     if (HAL_DMA_Init(&hdma_spi3_tx) != HAL_OK)
 204              		.loc 1 88 0
 205 0086 4562     		str	r5, [r0, #36]
  89:Src/spi.c     ****     {
 206              		.loc 1 89 0
 207 0088 FFF7FEFF 		bl	HAL_DMA_Init
 208              	.LVL7:
 209 008c 18B9     		cbnz	r0, .L12
 210              	.L9:
  94:Src/spi.c     **** 
 211              		.loc 1 94 0
 212 008e 054B     		ldr	r3, .L13+8
 213 0090 A364     		str	r3, [r4, #72]
 214 0092 9C63     		str	r4, [r3, #56]
 215              		.loc 1 100 0
 216 0094 C0E7     		b	.L7
 217              	.L12:
  91:Src/spi.c     ****     }
 218              		.loc 1 91 0
 219 0096 FFF7FEFF 		bl	Error_Handler
 220              	.LVL8:
 221 009a F8E7     		b	.L9
 222              	.L14:
 223              		.align	2
 224              	.L13:
 225 009c 003C0040 		.word	1073757184
ARM GAS  /var/folders/kp/233_yh1j2dd9gvn3v4mq48f40000gn/T//ccdAyJhv.s 			page 7


 226 00a0 00080240 		.word	1073874944
 227 00a4 00000000 		.word	hdma_spi3_tx
 228 00a8 88600240 		.word	1073897608
 229              		.cfi_endproc
 230              	.LFE131:
 232              		.section	.text.HAL_SPI_MspDeInit,"ax",%progbits
 233              		.align	1
 234              		.global	HAL_SPI_MspDeInit
 235              		.syntax unified
 236              		.thumb
 237              		.thumb_func
 238              		.fpu fpv4-sp-d16
 240              	HAL_SPI_MspDeInit:
 241              	.LFB132:
 101:Src/spi.c     **** 
 102:Src/spi.c     **** void HAL_SPI_MspDeInit(SPI_HandleTypeDef* spiHandle)
 103:Src/spi.c     **** {
 242              		.loc 1 103 0
 243              		.cfi_startproc
 244              		@ args = 0, pretend = 0, frame = 0
 245              		@ frame_needed = 0, uses_anonymous_args = 0
 246              	.LVL9:
 104:Src/spi.c     **** 
 105:Src/spi.c     ****   if(spiHandle->Instance==SPI3)
 247              		.loc 1 105 0
 248 0000 0268     		ldr	r2, [r0]
 249 0002 0A4B     		ldr	r3, .L22
 250 0004 9A42     		cmp	r2, r3
 251 0006 00D0     		beq	.L21
 252 0008 7047     		bx	lr
 253              	.L21:
 103:Src/spi.c     **** 
 254              		.loc 1 103 0
 255 000a 10B5     		push	{r4, lr}
 256              	.LCFI5:
 257              		.cfi_def_cfa_offset 8
 258              		.cfi_offset 4, -8
 259              		.cfi_offset 14, -4
 260 000c 0446     		mov	r4, r0
 106:Src/spi.c     ****   {
 107:Src/spi.c     ****   /* USER CODE BEGIN SPI3_MspDeInit 0 */
 108:Src/spi.c     **** 
 109:Src/spi.c     ****   /* USER CODE END SPI3_MspDeInit 0 */
 110:Src/spi.c     ****     /* Peripheral clock disable */
 111:Src/spi.c     ****     __HAL_RCC_SPI3_CLK_DISABLE();
 261              		.loc 1 111 0
 262 000e 084A     		ldr	r2, .L22+4
 263 0010 136C     		ldr	r3, [r2, #64]
 264 0012 23F40043 		bic	r3, r3, #32768
 265 0016 1364     		str	r3, [r2, #64]
 112:Src/spi.c     **** 
 113:Src/spi.c     ****     /**SPI3 GPIO Configuration
 114:Src/spi.c     ****     PC10     ------> SPI3_SCK
 115:Src/spi.c     ****     PC12     ------> SPI3_MOSI
 116:Src/spi.c     ****     */
 117:Src/spi.c     ****     HAL_GPIO_DeInit(GPIOC, GPIO_PIN_10|GPIO_PIN_12);
 266              		.loc 1 117 0
ARM GAS  /var/folders/kp/233_yh1j2dd9gvn3v4mq48f40000gn/T//ccdAyJhv.s 			page 8


 267 0018 4FF4A051 		mov	r1, #5120
 268 001c 0548     		ldr	r0, .L22+8
 269              	.LVL10:
 270 001e FFF7FEFF 		bl	HAL_GPIO_DeInit
 271              	.LVL11:
 118:Src/spi.c     **** 
 119:Src/spi.c     ****     /* SPI3 DMA DeInit */
 120:Src/spi.c     ****     HAL_DMA_DeInit(spiHandle->hdmatx);
 272              		.loc 1 120 0
 273 0022 A06C     		ldr	r0, [r4, #72]
 274 0024 FFF7FEFF 		bl	HAL_DMA_DeInit
 275              	.LVL12:
 276 0028 10BD     		pop	{r4, pc}
 277              	.LVL13:
 278              	.L23:
 279 002a 00BF     		.align	2
 280              	.L22:
 281 002c 003C0040 		.word	1073757184
 282 0030 00380240 		.word	1073887232
 283 0034 00080240 		.word	1073874944
 284              		.cfi_endproc
 285              	.LFE132:
 287              		.comm	hdma_spi3_tx,96,4
 288              		.comm	hspi3,88,4
 289              		.text
 290              	.Letext0:
 291              		.file 2 "/Users/geekzjk/opt/gcc-arm-none-eabi-6-2017-q2-update/arm-none-eabi/include/machine/_defa
 292              		.file 3 "/Users/geekzjk/opt/gcc-arm-none-eabi-6-2017-q2-update/arm-none-eabi/include/sys/_stdint.h
 293              		.file 4 "Drivers/CMSIS/Include/core_cm4.h"
 294              		.file 5 "Drivers/CMSIS/Device/ST/STM32F4xx/Include/system_stm32f4xx.h"
 295              		.file 6 "Drivers/CMSIS/Device/ST/STM32F4xx/Include/stm32f405xx.h"
 296              		.file 7 "Drivers/STM32F4xx_HAL_Driver/Inc/stm32f4xx_hal_def.h"
 297              		.file 8 "Drivers/STM32F4xx_HAL_Driver/Inc/stm32f4xx_hal_gpio.h"
 298              		.file 9 "Drivers/STM32F4xx_HAL_Driver/Inc/stm32f4xx_hal_dma.h"
 299              		.file 10 "Drivers/STM32F4xx_HAL_Driver/Inc/stm32f4xx_hal_spi.h"
 300              		.file 11 "Drivers/STM32F4xx_HAL_Driver/Inc/stm32f4xx_hal.h"
 301              		.file 12 "Inc/spi.h"
 302              		.file 13 "Inc/main.h"
ARM GAS  /var/folders/kp/233_yh1j2dd9gvn3v4mq48f40000gn/T//ccdAyJhv.s 			page 9

