ARM GAS  /var/folders/kp/233_yh1j2dd9gvn3v4mq48f40000gn/T//cc2oM3EU.s 			page 1


   1              		.cpu cortex-m4
   2              		.eabi_attribute 27, 1
   3              		.eabi_attribute 28, 1
   4              		.eabi_attribute 20, 1
   5              		.eabi_attribute 21, 1
   6              		.eabi_attribute 23, 3
   7              		.eabi_attribute 24, 1
   8              		.eabi_attribute 25, 1
   9              		.eabi_attribute 26, 1
  10              		.eabi_attribute 30, 1
  11              		.eabi_attribute 34, 1
  12              		.eabi_attribute 18, 4
  13              		.file	"user_main.c"
  14              		.text
  15              	.Ltext0:
  16              		.cfi_sections	.debug_frame
  17              		.section	.text.user_setup,"ax",%progbits
  18              		.align	1
  19              		.global	user_setup
  20              		.syntax unified
  21              		.thumb
  22              		.thumb_func
  23              		.fpu fpv4-sp-d16
  25              	user_setup:
  26              	.LFB130:
  27              		.file 1 "Src/User/user_main.c"
   1:Src/User/user_main.c **** #include "user_main.h"
   2:Src/User/user_main.c **** 
   3:Src/User/user_main.c **** // float motor_current = 0.1f, motor_speed = 0, motor_position = 0;
   4:Src/User/user_main.c **** 
   5:Src/User/user_main.c **** uint8_t braking_flag = 0;
   6:Src/User/user_main.c **** 
   7:Src/User/user_main.c **** void user_setup()
   8:Src/User/user_main.c **** {
  28              		.loc 1 8 0
  29              		.cfi_startproc
  30              		@ args = 0, pretend = 0, frame = 0
  31              		@ frame_needed = 0, uses_anonymous_args = 0
  32 0000 08B5     		push	{r3, lr}
  33              	.LCFI0:
  34              		.cfi_def_cfa_offset 8
  35              		.cfi_offset 3, -8
  36              		.cfi_offset 14, -4
   9:Src/User/user_main.c ****     user_control_init();
  37              		.loc 1 9 0
  38 0002 FFF7FEFF 		bl	user_control_init
  39              	.LVL0:
  40              	.L2:
  10:Src/User/user_main.c ****     while (wait_for_system_start())
  41              		.loc 1 10 0 discriminator 1
  42 0006 FFF7FEFF 		bl	wait_for_system_start
  43              	.LVL1:
  44 000a 0028     		cmp	r0, #0
  45 000c FBD1     		bne	.L2
  11:Src/User/user_main.c ****         ;
  12:Src/User/user_main.c ****     can_init();
  46              		.loc 1 12 0
ARM GAS  /var/folders/kp/233_yh1j2dd9gvn3v4mq48f40000gn/T//cc2oM3EU.s 			page 2


  47 000e FFF7FEFF 		bl	can_init
  48              	.LVL2:
  13:Src/User/user_main.c ****     M3508_init();
  49              		.loc 1 13 0
  50 0012 FFF7FEFF 		bl	M3508_init
  51              	.LVL3:
  14:Src/User/user_main.c ****     HAL_TIM_Base_Start_IT(&htim6);
  52              		.loc 1 14 0
  53 0016 0A48     		ldr	r0, .L5
  54 0018 FFF7FEFF 		bl	HAL_TIM_Base_Start_IT
  55              	.LVL4:
  15:Src/User/user_main.c ****     HAL_TIM_Base_Start_IT(&htim7);
  56              		.loc 1 15 0
  57 001c 0948     		ldr	r0, .L5+4
  58 001e FFF7FEFF 		bl	HAL_TIM_Base_Start_IT
  59              	.LVL5:
  60              	.L3:
  16:Src/User/user_main.c ****     while (calibrate_flag != 3);
  61              		.loc 1 16 0 discriminator 1
  62 0022 094B     		ldr	r3, .L5+8
  63 0024 1B78     		ldrb	r3, [r3]	@ zero_extendqisi2
  64 0026 032B     		cmp	r3, #3
  65 0028 FBD1     		bne	.L3
  17:Src/User/user_main.c ****     LED_init();
  66              		.loc 1 17 0
  67 002a FFF7FEFF 		bl	LED_init
  68              	.LVL6:
  18:Src/User/user_main.c ****     MPU6050_init();
  69              		.loc 1 18 0
  70 002e FFF7FEFF 		bl	MPU6050_init
  71              	.LVL7:
  19:Src/User/user_main.c ****     motor.pwm = 0;
  72              		.loc 1 19 0
  73 0032 0022     		movs	r2, #0
  74 0034 054B     		ldr	r3, .L5+12
  75 0036 1A70     		strb	r2, [r3]
  20:Src/User/user_main.c ****     motor_start();
  76              		.loc 1 20 0
  77 0038 FFF7FEFF 		bl	motor_start
  78              	.LVL8:
  79 003c 08BD     		pop	{r3, pc}
  80              	.L6:
  81 003e 00BF     		.align	2
  82              	.L5:
  83 0040 00000000 		.word	htim6
  84 0044 00000000 		.word	htim7
  85 0048 00000000 		.word	calibrate_flag
  86 004c 00000000 		.word	motor
  87              		.cfi_endproc
  88              	.LFE130:
  90              		.section	.text.user_loop,"ax",%progbits
  91              		.align	1
  92              		.global	user_loop
  93              		.syntax unified
  94              		.thumb
  95              		.thumb_func
  96              		.fpu fpv4-sp-d16
ARM GAS  /var/folders/kp/233_yh1j2dd9gvn3v4mq48f40000gn/T//cc2oM3EU.s 			page 3


  98              	user_loop:
  99              	.LFB131:
  21:Src/User/user_main.c **** 
  22:Src/User/user_main.c ****     // HAL_TIM_Base_Start_IT(&htim10);
  23:Src/User/user_main.c **** }
  24:Src/User/user_main.c **** 
  25:Src/User/user_main.c **** void user_loop()
  26:Src/User/user_main.c **** {
 100              		.loc 1 26 0
 101              		.cfi_startproc
 102              		@ args = 0, pretend = 0, frame = 0
 103              		@ frame_needed = 0, uses_anonymous_args = 0
 104 0000 08B5     		push	{r3, lr}
 105              	.LCFI1:
 106              		.cfi_def_cfa_offset 8
 107              		.cfi_offset 3, -8
 108              		.cfi_offset 14, -4
  27:Src/User/user_main.c ****     // HAL_Delay(3000);
  28:Src/User/user_main.c ****     // HAL_NVIC_SystemReset();
  29:Src/User/user_main.c ****     if (check_system_halt() == 0)
 109              		.loc 1 29 0
 110 0002 FFF7FEFF 		bl	check_system_halt
 111              	.LVL9:
 112 0006 20B1     		cbz	r0, .L10
 113              	.L8:
  30:Src/User/user_main.c ****     {
  31:Src/User/user_main.c ****         LED_off();
  32:Src/User/user_main.c ****         HAL_Delay(100);
  33:Src/User/user_main.c ****         HAL_NVIC_SystemReset();
  34:Src/User/user_main.c ****     }
  35:Src/User/user_main.c **** 
  36:Src/User/user_main.c ****     // user_update_throttle();
  37:Src/User/user_main.c ****     MPU6050_update_data();
 114              		.loc 1 37 0
 115 0008 FFF7FEFF 		bl	MPU6050_update_data
 116              	.LVL10:
  38:Src/User/user_main.c ****     LED_control();
 117              		.loc 1 38 0
 118 000c FFF7FEFF 		bl	LED_control
 119              	.LVL11:
 120 0010 08BD     		pop	{r3, pc}
 121              	.L10:
  31:Src/User/user_main.c ****         HAL_Delay(100);
 122              		.loc 1 31 0
 123 0012 FFF7FEFF 		bl	LED_off
 124              	.LVL12:
  32:Src/User/user_main.c ****         HAL_NVIC_SystemReset();
 125              		.loc 1 32 0
 126 0016 6420     		movs	r0, #100
 127 0018 FFF7FEFF 		bl	HAL_Delay
 128              	.LVL13:
  33:Src/User/user_main.c ****     }
 129              		.loc 1 33 0
 130 001c FFF7FEFF 		bl	HAL_NVIC_SystemReset
 131              	.LVL14:
 132 0020 F2E7     		b	.L8
 133              		.cfi_endproc
ARM GAS  /var/folders/kp/233_yh1j2dd9gvn3v4mq48f40000gn/T//cc2oM3EU.s 			page 4


 134              	.LFE131:
 136              		.global	braking_flag
 137              		.section	.bss.braking_flag,"aw",%nobits
 140              	braking_flag:
 141 0000 00       		.space	1
 142              		.text
 143              	.Letext0:
 144              		.file 2 "/Users/geekzjk/opt/gcc-arm-none-eabi-6-2017-q2-update/arm-none-eabi/include/machine/_defa
 145              		.file 3 "/Users/geekzjk/opt/gcc-arm-none-eabi-6-2017-q2-update/arm-none-eabi/include/sys/_stdint.h
 146              		.file 4 "Drivers/CMSIS/Include/core_cm4.h"
 147              		.file 5 "Drivers/CMSIS/Device/ST/STM32F4xx/Include/system_stm32f4xx.h"
 148              		.file 6 "Drivers/CMSIS/Device/ST/STM32F4xx/Include/stm32f405xx.h"
 149              		.file 7 "Drivers/CMSIS/Device/ST/STM32F4xx/Include/stm32f4xx.h"
 150              		.file 8 "Drivers/STM32F4xx_HAL_Driver/Inc/stm32f4xx_hal_def.h"
 151              		.file 9 "Drivers/STM32F4xx_HAL_Driver/Inc/stm32f4xx_hal_dma.h"
 152              		.file 10 "Drivers/STM32F4xx_HAL_Driver/Inc/stm32f4xx_hal_adc.h"
 153              		.file 11 "Drivers/STM32F4xx_HAL_Driver/Inc/stm32f4xx_hal_can.h"
 154              		.file 12 "Drivers/STM32F4xx_HAL_Driver/Inc/stm32f4xx_hal_spi.h"
 155              		.file 13 "Drivers/STM32F4xx_HAL_Driver/Inc/stm32f4xx_hal_tim.h"
 156              		.file 14 "Drivers/STM32F4xx_HAL_Driver/Inc/stm32f4xx_hal.h"
 157              		.file 15 "Inc/can.h"
 158              		.file 16 "Inc/tim.h"
 159              		.file 17 "Inc/spi.h"
 160              		.file 18 "Inc/adc.h"
 161              		.file 19 "Inc/User/algorithm.h"
 162              		.file 20 "/Users/geekzjk/opt/gcc-arm-none-eabi-6-2017-q2-update/arm-none-eabi/include/sys/lock.h"
 163              		.file 21 "/Users/geekzjk/opt/gcc-arm-none-eabi-6-2017-q2-update/arm-none-eabi/include/sys/_types.h
 164              		.file 22 "/Users/geekzjk/opt/gcc-arm-none-eabi-6-2017-q2-update/lib/gcc/arm-none-eabi/6.3.1/includ
 165              		.file 23 "/Users/geekzjk/opt/gcc-arm-none-eabi-6-2017-q2-update/arm-none-eabi/include/sys/reent.h"
 166              		.file 24 "/Users/geekzjk/opt/gcc-arm-none-eabi-6-2017-q2-update/arm-none-eabi/include/stdlib.h"
 167              		.file 25 "Inc/User/motor_driver.h"
 168              		.file 26 "Inc/User/can_protocol.h"
 169              		.file 27 "Inc/User/WS2812B.h"
 170              		.file 28 "Inc/User/MPU6050.h"
 171              		.file 29 "Inc/User/M3508.h"
 172              		.file 30 "Inc/User/user_control.h"
 173              		.file 31 "Inc/User/user_main.h"
 174              		.file 32 "Inc/User/LED.h"
 175              		.file 33 "Drivers/STM32F4xx_HAL_Driver/Inc/stm32f4xx_hal_cortex.h"
ARM GAS  /var/folders/kp/233_yh1j2dd9gvn3v4mq48f40000gn/T//cc2oM3EU.s 			page 5


DEFINED SYMBOLS
                            *ABS*:0000000000000000 user_main.c
/var/folders/kp/233_yh1j2dd9gvn3v4mq48f40000gn/T//cc2oM3EU.s:18     .text.user_setup:0000000000000000 $t
/var/folders/kp/233_yh1j2dd9gvn3v4mq48f40000gn/T//cc2oM3EU.s:25     .text.user_setup:0000000000000000 user_setup
/var/folders/kp/233_yh1j2dd9gvn3v4mq48f40000gn/T//cc2oM3EU.s:83     .text.user_setup:0000000000000040 $d
/var/folders/kp/233_yh1j2dd9gvn3v4mq48f40000gn/T//cc2oM3EU.s:91     .text.user_loop:0000000000000000 $t
/var/folders/kp/233_yh1j2dd9gvn3v4mq48f40000gn/T//cc2oM3EU.s:98     .text.user_loop:0000000000000000 user_loop
/var/folders/kp/233_yh1j2dd9gvn3v4mq48f40000gn/T//cc2oM3EU.s:140    .bss.braking_flag:0000000000000000 braking_flag
/var/folders/kp/233_yh1j2dd9gvn3v4mq48f40000gn/T//cc2oM3EU.s:141    .bss.braking_flag:0000000000000000 $d
                     .debug_frame:0000000000000010 $d

UNDEFINED SYMBOLS
user_control_init
wait_for_system_start
can_init
M3508_init
HAL_TIM_Base_Start_IT
LED_init
MPU6050_init
motor_start
htim6
htim7
calibrate_flag
motor
check_system_halt
MPU6050_update_data
LED_control
LED_off
HAL_Delay
HAL_NVIC_SystemReset
